Certificate:
    Data:
        Version: 3 (0x2)
        Serial Number:
            03:3d:01:90:72:82:5e:e3:39:7b:79:81:37:4e:16:d6
        Signature Algorithm: sha256WithRSAEncryption
        Issuer: C=RO, ST=Bucharest, O=ATM ORG, OU=ATM ROOT CA, CN=ATM COMMON NAME/emailAddress=atm_ca@pki.com
        Validity
            Not Before: Feb 17 12:31:03 2020 GMT
            Not After : Feb 16 12:31:03 2021 GMT
        Subject: C=RO, ST=Bucharest, O=ATM ORG, CN=SVA_BY_ATM_ROOT_CA
        Subject Public Key Info:
            Public Key Algorithm: rsaEncryption
                RSA Public-Key: (2048 bit)
                Modulus:
                    00:b4:a8:eb:fb:88:fb:1e:57:ac:e1:ca:0b:7f:09:
                    25:58:f6:ba:88:d4:08:88:69:db:06:57:21:0a:6b:
                    f4:f5:fa:22:93:62:1e:90:8d:54:f0:5f:19:c5:4b:
                    c2:77:18:78:7d:1b:36:02:4c:f7:4c:6f:20:2d:dd:
                    d5:c1:b9:d1:a8:9e:2e:c6:56:8a:ce:24:59:93:72:
                    41:62:88:b3:bb:3c:3b:3d:3d:f1:73:f9:a7:a9:83:
                    f7:2c:ce:d4:3a:7f:57:2c:97:9c:d3:55:3e:6c:73:
                    4e:0f:bb:f3:c9:2e:26:c5:46:e2:d0:00:ff:2f:d4:
                    4f:36:f7:b3:aa:2e:14:0b:4d:49:5b:61:1f:c4:69:
                    02:a1:9f:35:cb:a3:fb:67:83:6e:10:8a:15:88:bb:
                    39:f6:a6:de:cb:ac:59:aa:e2:d2:f8:1e:28:e8:9a:
                    24:e5:1f:5c:a0:8b:02:e1:dd:39:75:42:23:f1:e1:
                    c5:2c:f3:97:0c:6f:1c:65:22:36:00:bd:8f:b1:3d:
                    a8:7f:eb:ab:6b:2d:11:01:31:2a:bc:2c:93:c6:42:
                    a1:b9:ce:8f:af:ac:17:0d:d2:58:5e:20:80:85:18:
                    c5:3c:d8:9d:8f:b5:0b:94:58:f9:22:19:49:6c:e0:
                    94:5b:e0:b5:7f:08:fe:d4:4a:d2:3b:11:2e:a1:02:
                    f0:55
                Exponent: 65537 (0x10001)
        X509v3 extensions:
            X509v3 Basic Constraints: 
                CA:FALSE
            Netscape Comment: 
                OpenSSL Generated Certificate
            X509v3 Authority Key Identifier: 
                keyid:96:45:35:33:89:B7:3E:98:16:65:F3:65:67:E7:66:35:12:39:3F:98

            Authority Information Access: 
                CA Issuers - URI:http://localhost:8080/diverse/rootca/root-ca.crt
                OCSP - URI:http://127.0.0.1:8888

            X509v3 CRL Distribution Points: 

                Full Name:
                  URI:http://localhost:8080/diverse/rootca/crl/crllist_der.crl

            X509v3 Key Usage: 
                Digital Signature, Non Repudiation, Key Encipherment
            X509v3 Extended Key Usage: 
                TLS Web Client Authentication, TLS Web Server Authentication
            X509v3 Subject Key Identifier: 
                C2:87:1A:24:E5:07:FA:0C:F5:C4:58:05:BC:B3:05:9B:65:01:90:B6
    Signature Algorithm: sha256WithRSAEncryption
         2e:aa:fa:f3:53:8e:bc:4e:a3:ff:85:01:0a:91:65:d8:ce:ef:
         7a:19:fe:d2:ec:43:90:3f:3e:c5:04:09:02:40:fc:d1:38:27:
         d3:31:7b:a7:7d:47:ec:17:77:18:4d:13:24:c0:00:5a:df:bc:
         2b:65:45:77:7a:89:45:5b:b8:d3:02:1b:16:08:ec:1b:4d:13:
         f9:cf:bb:2f:bc:a5:03:b1:74:37:b1:5f:c3:3b:e9:71:f9:d4:
         9a:12:b8:46:aa:83:1e:f7:b0:03:ea:85:f7:34:fb:6b:28:e2:
         9f:76:d6:2a:fe:45:22:b0:2c:c4:cb:29:d9:1f:5b:0f:21:6f:
         45:a3:a9:08:1e:1f:24:53:aa:63:c0:c8:9d:d3:e2:18:68:4c:
         16:d3:83:6e:47:80:af:3b:88:d8:be:4e:26:62:58:94:ee:b1:
         cf:e6:8c:a2:f3:6e:f9:41:12:27:28:46:00:9c:5c:db:0d:40:
         cf:e8:07:6c:38:dd:bd:60:09:d1:5d:e9:bc:9f:24:d0:27:e6:
         a4:c5:36:32:05:2e:22:ba:9a:43:30:6f:c2:a5:05:7d:69:a4:
         16:73:0d:2c:98:24:b5:9e:f0:2c:70:30:21:84:aa:9d:35:0c:
         a9:f0:c5:5b:fd:2d:92:a1:cb:e9:e0:2a:8b:0e:14:fd:ae:4c:
         97:31:cd:fe
-----BEGIN CERTIFICATE-----
MIIExDCCA6ygAwIBAgIQAz0BkHKCXuM5e3mBN04W1jANBgkqhkiG9w0BAQsFADCB
gjELMAkGA1UEBhMCUk8xEjAQBgNVBAgMCUJ1Y2hhcmVzdDEQMA4GA1UECgwHQVRN
IE9SRzEUMBIGA1UECwwLQVRNIFJPT1QgQ0ExGDAWBgNVBAMMD0FUTSBDT01NT04g
TkFNRTEdMBsGCSqGSIb3DQEJARYOYXRtX2NhQHBraS5jb20wHhcNMjAwMjE3MTIz
MTAzWhcNMjEwMjE2MTIzMTAzWjBQMQswCQYDVQQGEwJSTzESMBAGA1UECAwJQnVj
aGFyZXN0MRAwDgYDVQQKDAdBVE0gT1JHMRswGQYDVQQDDBJTVkFfQllfQVRNX1JP
T1RfQ0EwggEiMA0GCSqGSIb3DQEBAQUAA4IBDwAwggEKAoIBAQC0qOv7iPseV6zh
ygt/CSVY9rqI1AiIadsGVyEKa/T1+iKTYh6QjVTwXxnFS8J3GHh9GzYCTPdMbyAt
3dXBudGoni7GVorOJFmTckFiiLO7PDs9PfFz+aepg/csztQ6f1csl5zTVT5sc04P
u/PJLibFRuLQAP8v1E8297OqLhQLTUlbYR/EaQKhnzXLo/tng24QihWIuzn2pt7L
rFmq4tL4HijomiTlH1ygiwLh3Tl1QiPx4cUs85cMbxxlIjYAvY+xPah/66trLREB
MSq8LJPGQqG5zo+vrBcN0lheIICFGMU82J2PtQuUWPkiGUls4JRb4LV/CP7UStI7
ES6hAvBVAgMBAAGjggFlMIIBYTAJBgNVHRMEAjAAMCwGCWCGSAGG+EIBDQQfFh1P
cGVuU1NMIEdlbmVyYXRlZCBDZXJ0aWZpY2F0ZTAfBgNVHSMEGDAWgBSWRTUzibc+
mBZl82Vn52Y1Ejk/mDBvBggrBgEFBQcBAQRjMGEwPAYIKwYBBQUHMAKGMGh0dHA6
Ly9sb2NhbGhvc3Q6ODA4MC9kaXZlcnNlL3Jvb3RjYS9yb290LWNhLmNydDAhBggr
BgEFBQcwAYYVaHR0cDovLzEyNy4wLjAuMTo4ODg4MEkGA1UdHwRCMEAwPqA8oDqG
OGh0dHA6Ly9sb2NhbGhvc3Q6ODA4MC9kaXZlcnNlL3Jvb3RjYS9jcmwvY3JsbGlz
dF9kZXIuY3JsMAsGA1UdDwQEAwIF4DAdBgNVHSUEFjAUBggrBgEFBQcDAgYIKwYB
BQUHAwEwHQYDVR0OBBYEFMKHGiTlB/oM9cRYBbyzBZtlAZC2MA0GCSqGSIb3DQEB
CwUAA4IBAQAuqvrzU468TqP/hQEKkWXYzu96Gf7S7EOQPz7FBAkCQPzROCfTMXun
fUfsF3cYTRMkwABa37wrZUV3eolFW7jTAhsWCOwbTRP5z7svvKUDsXQ3sV/DO+lx
+dSaErhGqoMe97AD6oX3NPtrKOKfdtYq/kUisCzEyynZH1sPIW9Fo6kIHh8kU6pj
wMid0+IYaEwW04NuR4CvO4jYvk4mYliU7rHP5oyi8275QRInKEYAnFzbDUDP6Ads
ON29YAnRXem8nyTQJ+akxTYyBS4iuppDMG/CpQV9aaQWcw0smCS1nvAscDAhhKqd
NQyp8MVb/S2Socvp4CqLDhT9rkyXMc3+
-----END CERTIFICATE-----
