Certificate:
    Data:
        Version: 3 (0x2)
        Serial Number:
            03:3d:01:90:72:82:5e:e3:39:7b:79:81:37:4e:16:da
        Signature Algorithm: sha256WithRSAEncryption
        Issuer: C=12, ST=1, L=1, O=1, OU=1, CN=1/emailAddress=1
        Validity
            Not Before: Feb 17 23:31:06 2020 GMT
            Not After : Feb 16 23:31:06 2021 GMT
        Subject: C=12, ST=1, O=1, OU=1, CN=1/emailAddress=1
        Subject Public Key Info:
            Public Key Algorithm: rsaEncryption
                RSA Public-Key: (2048 bit)
                Modulus:
                    00:de:d4:9f:01:83:81:e1:6a:60:73:62:87:f1:32:
                    dd:e8:ac:ea:f7:69:54:4f:b4:65:6f:61:81:87:31:
                    33:10:ad:0f:47:3b:ea:28:4c:fb:a2:a1:b6:10:fd:
                    00:6a:e4:af:89:c4:23:44:2c:07:fe:6f:b7:e6:72:
                    30:40:9c:40:bb:b5:f6:29:cd:1f:d1:c8:4e:33:56:
                    33:86:2f:ac:15:b9:e3:34:d9:ed:e9:b2:13:27:35:
                    b6:d8:48:83:07:c3:55:b7:74:07:0c:07:e4:03:af:
                    0e:d1:80:65:dc:69:de:b9:7c:53:4e:27:a0:a0:4f:
                    bc:11:f5:7e:1b:bd:f7:70:e4:5a:e5:d5:54:df:08:
                    25:01:c9:b3:cd:ab:82:51:f2:17:3f:2c:db:03:2f:
                    7f:23:83:d3:f2:41:e6:8a:84:77:49:c6:98:c8:b1:
                    14:a7:df:5b:7a:75:66:f1:44:5f:15:9d:9e:ed:c3:
                    30:d8:10:cf:ca:6c:0a:9b:55:ce:9e:e6:1a:f5:cc:
                    ef:65:79:00:68:76:ff:06:6b:66:1c:43:44:27:9a:
                    7c:73:42:9d:66:51:6c:24:8a:e3:3e:99:51:79:c2:
                    0b:0a:25:89:a3:2a:a7:1f:85:60:26:9f:8a:84:a3:
                    cc:f9:4c:cf:ed:c6:27:85:c9:f6:97:77:cb:9d:79:
                    7f:19
                Exponent: 65537 (0x10001)
        X509v3 extensions:
            X509v3 Basic Constraints: 
                CA:FALSE
            X509v3 Key Usage: 
                Digital Signature, Non Repudiation, Key Encipherment
            X509v3 Extended Key Usage: 
                OCSP Signing
            Authority Information Access: 
                CA Issuers - URI:http://localhost:8080/diverse/rootca/self-ca.crt
                OCSP - URI:http://127.0.0.1:9999

            X509v3 CRL Distribution Points: 

                Full Name:
                  URI:http://localhost:8080/diverse/rootca/crl/crllist_der.crl

    Signature Algorithm: sha256WithRSAEncryption
         6d:d2:70:61:af:22:2b:b6:dd:0a:f1:d2:06:c4:bc:3e:d3:5e:
         97:d4:53:ad:ed:99:83:66:19:71:c4:b8:52:b3:16:9e:c8:2b:
         9e:e6:b8:5b:3d:57:ab:26:7b:eb:7b:22:13:3b:85:92:ce:6d:
         16:ef:59:7a:ec:04:49:6d:fb:8d:b7:27:57:6a:65:c7:de:0e:
         56:a0:0b:1c:7f:b6:a0:90:36:21:e7:83:ad:98:ef:c0:16:16:
         0d:58:fa:0b:44:d2:e3:bd:25:1c:7a:05:b0:8b:96:27:f4:e6:
         60:23:b1:fe:f5:f3:fa:6b:ba:c5:ae:72:35:37:f8:d1:a5:66:
         14:a6:f9:ee:5d:df:14:a1:91:17:18:47:0d:40:c4:b0:6b:8d:
         f0:51:87:fc:fb:ac:80:7f:36:38:d2:54:e5:4b:2e:53:a6:c3:
         b0:e9:ff:8f:e2:a7:50:2e:2a:15:66:70:8c:42:da:9b:91:9f:
         6f:68:c8:3d:06:5a:e7:a3:94:d7:2b:ef:41:33:1d:5a:15:25:
         95:26:6b:76:e0:9f:27:49:df:9a:fd:4e:ca:c9:c5:4b:50:f1:
         e2:65:ac:da:0b:a3:3b:3e:04:a7:8d:fc:3c:7c:18:67:33:87:
         66:b7:79:f3:38:2c:ec:44:14:f7:ec:4d:b8:f8:a4:75:50:2a:
         19:c3:54:07
-----BEGIN CERTIFICATE-----
MIIEITCCAwmgAwIBAgIQAz0BkHKCXuM5e3mBN04W2jANBgkqhkiG9w0BAQsFADBb
MQswCQYDVQQGEwIxMjEKMAgGA1UECAwBMTEKMAgGA1UEBwwBMTEKMAgGA1UECgwB
MTEKMAgGA1UECwwBMTEKMAgGA1UEAwwBMTEQMA4GCSqGSIb3DQEJARYBMTAeFw0y
MDAyMTcyMzMxMDZaFw0yMTAyMTYyMzMxMDZaME8xCzAJBgNVBAYTAjEyMQowCAYD
VQQIDAExMQowCAYDVQQKDAExMQowCAYDVQQLDAExMQowCAYDVQQDDAExMRAwDgYJ
KoZIhvcNAQkBFgExMIIBIjANBgkqhkiG9w0BAQEFAAOCAQ8AMIIBCgKCAQEA3tSf
AYOB4Wpgc2KH8TLd6Kzq92lUT7Rlb2GBhzEzEK0PRzvqKEz7oqG2EP0AauSvicQj
RCwH/m+35nIwQJxAu7X2Kc0f0chOM1Yzhi+sFbnjNNnt6bITJzW22EiDB8NVt3QH
DAfkA68O0YBl3GneuXxTTiegoE+8EfV+G733cORa5dVU3wglAcmzzauCUfIXPyzb
Ay9/I4PT8kHmioR3ScaYyLEUp99benVm8URfFZ2e7cMw2BDPymwKm1XOnuYa9czv
ZXkAaHb/BmtmHENEJ5p8c0KdZlFsJIrjPplRecILCiWJoyqnH4VgJp+KhKPM+UzP
7cYnhcn2l3fLnXl/GQIDAQABo4HsMIHpMAkGA1UdEwQCMAAwCwYDVR0PBAQDAgXg
MBMGA1UdJQQMMAoGCCsGAQUFBwMJMG8GCCsGAQUFBwEBBGMwYTA8BggrBgEFBQcw
AoYwaHR0cDovL2xvY2FsaG9zdDo4MDgwL2RpdmVyc2Uvcm9vdGNhL3NlbGYtY2Eu
Y3J0MCEGCCsGAQUFBzABhhVodHRwOi8vMTI3LjAuMC4xOjk5OTkwSQYDVR0fBEIw
QDA+oDygOoY4aHR0cDovL2xvY2FsaG9zdDo4MDgwL2RpdmVyc2Uvcm9vdGNhL2Ny
bC9jcmxsaXN0X2Rlci5jcmwwDQYJKoZIhvcNAQELBQADggEBAG3ScGGvIiu23Qrx
0gbEvD7TXpfUU63tmYNmGXHEuFKzFp7IK57muFs9V6sme+t7IhM7hZLObRbvWXrs
BElt+423J1dqZcfeDlagCxx/tqCQNiHng62Y78AWFg1Y+gtE0uO9JRx6BbCLlif0
5mAjsf718/prusWucjU3+NGlZhSm+e5d3xShkRcYRw1AxLBrjfBRh/z7rIB/NjjS
VOVLLlOmw7Dp/4/ip1AuKhVmcIxC2puRn29oyD0GWuejlNcr70EzHVoVJZUma3bg
nydJ35r9TsrJxUtQ8eJlrNoLozs+BKeN/Dx8GGczh2a3efM4LOxEFPfsTbj4pHVQ
KhnDVAc=
-----END CERTIFICATE-----
