Certificate:
    Data:
        Version: 3 (0x2)
        Serial Number:
            03:3d:01:90:72:82:5e:e3:39:7b:79:81:37:4e:16:d2
        Signature Algorithm: sha256WithRSAEncryption
        Issuer: C=RO, ST=Bucharest, O=ATM ORG, OU=ATM ROOT CA, CN=ATM COMMON NAME/emailAddress=atm_ca@pki.com
        Validity
            Not Before: Feb 16 22:45:00 2020 GMT
            Not After : Feb 15 22:45:00 2021 GMT
        Subject: C=RO, ST=Bucharest, O=ATM ORG, CN=x9
        Subject Public Key Info:
            Public Key Algorithm: rsaEncryption
                RSA Public-Key: (2048 bit)
                Modulus:
                    00:e2:c0:87:b5:ad:08:bf:51:c3:21:df:20:a4:54:
                    4f:b0:88:30:13:ea:f1:ef:5b:ae:1d:eb:8b:11:3f:
                    2f:9f:1d:9b:53:50:6f:8a:33:9a:4a:a5:72:76:c7:
                    bc:19:70:11:52:29:fa:79:3c:b6:00:53:79:38:b6:
                    ca:bd:8b:d0:4e:db:08:6a:4d:43:fe:05:a7:46:f3:
                    8c:1b:41:98:e7:86:dc:84:bf:94:fd:49:4c:60:a3:
                    7b:21:70:02:27:b4:30:20:1e:5a:f3:7f:ef:b8:86:
                    dd:11:17:81:b7:c0:03:9c:95:06:9f:b7:f7:78:4d:
                    53:27:c7:d1:3a:be:7a:fb:fe:eb:bc:62:56:73:4e:
                    0c:17:af:b1:1e:50:79:16:0b:3f:17:32:b0:5d:4f:
                    f8:8e:d0:38:d3:17:e0:b2:20:ca:c6:bd:20:50:48:
                    df:41:7c:20:d8:94:fd:34:df:74:8d:61:dd:7d:62:
                    9d:e2:1b:ac:46:b3:00:3d:64:f7:2e:95:a5:2a:32:
                    22:90:17:43:1c:8d:f1:fe:11:5c:ce:d2:10:21:4f:
                    09:bc:bf:f2:0f:87:0b:3f:5c:09:04:55:93:80:7a:
                    24:9c:14:6f:e6:69:ec:a4:ce:f9:08:4b:7c:78:81:
                    59:b9:7d:72:a1:6b:a9:e7:5f:26:42:65:cc:67:1f:
                    4a:7d
                Exponent: 65537 (0x10001)
        X509v3 extensions:
            X509v3 Basic Constraints: 
                CA:FALSE
            Netscape Comment: 
                OpenSSL Generated Certificate
            X509v3 Authority Key Identifier: 
                keyid:96:45:35:33:89:B7:3E:98:16:65:F3:65:67:E7:66:35:12:39:3F:98

            Authority Information Access: 
                CA Issuers - URI:http://localhost:8080/diverse/rootca/root-ca.crt
                OCSP - URI:http://127.0.0.1:8888

            X509v3 CRL Distribution Points: 

                Full Name:
                  URI:http://localhost:8080/diverse/rootca/crl/crllist_der.crl

            X509v3 Key Usage: 
                Digital Signature, Non Repudiation, Key Encipherment
            X509v3 Extended Key Usage: 
                TLS Web Client Authentication, TLS Web Server Authentication
            X509v3 Subject Key Identifier: 
                92:CD:60:B0:2B:8A:00:AA:99:87:CD:39:3A:CA:9A:F1:BB:8B:67:CD
    Signature Algorithm: sha256WithRSAEncryption
         71:70:54:28:b6:8f:7e:0f:96:62:21:71:85:55:03:23:17:81:
         e8:18:35:85:b8:c6:c7:7f:bf:e0:bb:52:33:4a:a1:02:7f:c6:
         03:34:fc:00:f9:23:0d:9c:67:33:a3:53:01:53:4a:14:77:3c:
         86:d2:68:01:bb:5e:f5:f2:9b:5b:fd:63:d3:61:8b:02:ca:11:
         e3:0d:3a:e3:61:e9:4e:7d:5b:2e:ed:e1:93:05:02:e5:0a:82:
         11:24:ea:e2:f5:9c:1a:c4:aa:6a:b8:b3:2b:1d:b2:4a:32:05:
         25:97:27:9c:b1:c2:4e:ba:f6:ba:f0:6d:61:01:3e:1b:c5:50:
         07:34:3f:54:a3:54:10:89:3a:d5:cd:b1:41:8d:c6:cd:14:4c:
         1c:b8:8a:a8:e7:88:3d:84:f7:f9:ce:c7:e5:9b:f2:2a:64:55:
         8c:ea:54:bc:3c:c3:91:1a:5f:cb:6e:14:97:98:54:fa:35:41:
         60:d6:3f:ee:5d:11:8a:09:16:32:19:bb:b8:5e:4a:75:90:1b:
         45:8f:05:48:84:fb:14:77:ab:a6:10:5e:f4:a1:ed:97:3c:c4:
         05:91:78:fd:2d:e1:ba:34:cc:2c:54:b9:12:91:0e:bd:0b:0c:
         f9:93:22:61:7e:98:ab:15:2e:25:3c:3f:64:63:ec:cc:63:51:
         bf:96:c2:86
-----BEGIN CERTIFICATE-----
MIIEtDCCA5ygAwIBAgIQAz0BkHKCXuM5e3mBN04W0jANBgkqhkiG9w0BAQsFADCB
gjELMAkGA1UEBhMCUk8xEjAQBgNVBAgMCUJ1Y2hhcmVzdDEQMA4GA1UECgwHQVRN
IE9SRzEUMBIGA1UECwwLQVRNIFJPT1QgQ0ExGDAWBgNVBAMMD0FUTSBDT01NT04g
TkFNRTEdMBsGCSqGSIb3DQEJARYOYXRtX2NhQHBraS5jb20wHhcNMjAwMjE2MjI0
NTAwWhcNMjEwMjE1MjI0NTAwWjBAMQswCQYDVQQGEwJSTzESMBAGA1UECAwJQnVj
aGFyZXN0MRAwDgYDVQQKDAdBVE0gT1JHMQswCQYDVQQDDAJ4OTCCASIwDQYJKoZI
hvcNAQEBBQADggEPADCCAQoCggEBAOLAh7WtCL9RwyHfIKRUT7CIMBPq8e9brh3r
ixE/L58dm1NQb4ozmkqlcnbHvBlwEVIp+nk8tgBTeTi2yr2L0E7bCGpNQ/4Fp0bz
jBtBmOeG3IS/lP1JTGCjeyFwAie0MCAeWvN/77iG3REXgbfAA5yVBp+393hNUyfH
0Tq+evv+67xiVnNODBevsR5QeRYLPxcysF1P+I7QONMX4LIgysa9IFBI30F8INiU
/TTfdI1h3X1ineIbrEazAD1k9y6VpSoyIpAXQxyN8f4RXM7SECFPCby/8g+HCz9c
CQRVk4B6JJwUb+Zp7KTO+QhLfHiBWbl9cqFrqedfJkJlzGcfSn0CAwEAAaOCAWUw
ggFhMAkGA1UdEwQCMAAwLAYJYIZIAYb4QgENBB8WHU9wZW5TU0wgR2VuZXJhdGVk
IENlcnRpZmljYXRlMB8GA1UdIwQYMBaAFJZFNTOJtz6YFmXzZWfnZjUSOT+YMG8G
CCsGAQUFBwEBBGMwYTA8BggrBgEFBQcwAoYwaHR0cDovL2xvY2FsaG9zdDo4MDgw
L2RpdmVyc2Uvcm9vdGNhL3Jvb3QtY2EuY3J0MCEGCCsGAQUFBzABhhVodHRwOi8v
MTI3LjAuMC4xOjg4ODgwSQYDVR0fBEIwQDA+oDygOoY4aHR0cDovL2xvY2FsaG9z
dDo4MDgwL2RpdmVyc2Uvcm9vdGNhL2NybC9jcmxsaXN0X2Rlci5jcmwwCwYDVR0P
BAQDAgXgMB0GA1UdJQQWMBQGCCsGAQUFBwMCBggrBgEFBQcDATAdBgNVHQ4EFgQU
ks1gsCuKAKqZh805Osqa8buLZ80wDQYJKoZIhvcNAQELBQADggEBAHFwVCi2j34P
lmIhcYVVAyMXgegYNYW4xsd/v+C7UjNKoQJ/xgM0/AD5Iw2cZzOjUwFTShR3PIbS
aAG7XvXym1v9Y9NhiwLKEeMNOuNh6U59Wy7t4ZMFAuUKghEk6uL1nBrEqmq4sysd
skoyBSWXJ5yxwk669rrwbWEBPhvFUAc0P1SjVBCJOtXNsUGNxs0UTBy4iqjniD2E
9/nOx+Wb8ipkVYzqVLw8w5EaX8tuFJeYVPo1QWDWP+5dEYoJFjIZu7heSnWQG0WP
BUiE+xR3q6YQXvSh7Zc8xAWReP0t4bo0zCxUuRKRDr0LDPmTImF+mKsVLiU8P2Rj
7MxjUb+WwoY=
-----END CERTIFICATE-----
