Certificate:
    Data:
        Version: 3 (0x2)
        Serial Number: 2 (0x2)
        Signature Algorithm: sha256WithRSAEncryption
        Issuer: C=RO, ST=State_RO, L=Bucharest, O=ATM, OU=ATM CA Authority, CN=ATM Root CA/emailAddress=admin@pki.com
        Validity
            Not Before: Jan 20 13:58:42 2020 GMT
            Not After : Jan 19 13:58:42 2021 GMT
        Subject: C=RO, ST=State_RO, O=ATM, OU=ATM_PKI, CN=PKISILAB.com/emailAddress=admin@pki
        Subject Public Key Info:
            Public Key Algorithm: rsaEncryption
                RSA Public-Key: (1024 bit)
                Modulus:
                    00:df:67:e7:32:f2:0a:40:5e:cb:0f:0a:05:47:70:
                    12:6d:12:68:47:3c:a1:06:7c:32:ff:2e:f0:b6:92:
                    fb:9e:e1:08:f3:15:33:07:cd:99:6f:ea:8c:a8:2a:
                    fe:6a:22:6c:16:26:65:a8:05:d9:c0:9d:3d:b5:64:
                    ea:ae:4f:4c:c2:67:93:01:22:23:21:e1:a8:b5:64:
                    ac:72:74:c7:40:3f:ab:e0:8d:b5:0f:8f:74:ef:e9:
                    f3:74:a7:a5:ee:a8:6c:49:50:4e:5a:13:55:56:b3:
                    a8:83:db:c0:a9:c6:ad:1b:a2:dc:10:cd:f6:fc:3c:
                    04:43:96:17:a9:66:32:70:75
                Exponent: 65537 (0x10001)
        X509v3 extensions:
            X509v3 Basic Constraints: 
                CA:FALSE
            Netscape Comment: 
                OpenSSL Generated Certificate
            X509v3 Subject Key Identifier: 
                9B:6B:77:A6:E0:DC:E2:DC:A6:65:29:F4:91:96:DD:AF:4C:4B:A1:9E
            X509v3 Authority Key Identifier: 
                keyid:05:DE:6E:F4:63:5D:C9:96:20:4D:80:6C:89:A0:F2:45:D1:FD:91:6A

    Signature Algorithm: sha256WithRSAEncryption
         85:b6:a4:39:07:a0:cd:af:e9:7e:36:a1:5a:06:55:3f:b9:44:
         bc:36:18:73:02:35:f2:9f:04:3f:1b:cf:8a:f6:b2:95:4e:5e:
         7f:a3:90:32:6f:1a:8d:d2:98:88:5c:49:9a:2f:af:6b:38:bf:
         4a:e2:16:1d:99:2d:c3:9d:1f:1c:af:36:37:cb:f9:12:22:9c:
         f5:d7:06:eb:dd:34:bf:ea:1e:82:2c:85:01:2b:c2:1b:1a:fe:
         ae:aa:fa:71:9d:b1:9f:7e:a4:f7:d8:40:fa:b1:63:8c:2f:c0:
         d8:5f:07:ba:30:08:1c:8f:dd:12:eb:40:b9:55:7c:6c:c7:d6:
         4d:97:3c:aa:96:87:a9:47:b8:46:6f:e3:88:6b:60:6e:7c:b1:
         13:7d:eb:f7:d2:78:12:19:6e:31:cc:32:0c:45:84:15:79:85:
         22:06:cf:05:ed:d4:71:cd:07:fd:57:94:46:06:5d:2b:d7:c6:
         47:0b:84:3a:79:ed:6b:b2:bf:84:16:90:f8:23:82:02:fd:88:
         1b:ac:b2:db:56:69:bb:d9:67:bb:09:b8:6c:06:dc:ed:f9:e3:
         10:8d:38:3a:44:cb:e3:e3:0c:bd:b1:86:49:9b:5b:4c:05:b0:
         5f:85:79:6a:17:45:c2:2d:ec:72:fd:55:f4:7f:73:46:d1:65:
         f8:e1:66:91
-----BEGIN CERTIFICATE-----
MIIDdTCCAl2gAwIBAgIBAjANBgkqhkiG9w0BAQsFADCBkTELMAkGA1UEBhMCUk8x
ETAPBgNVBAgMCFN0YXRlX1JPMRIwEAYDVQQHDAlCdWNoYXJlc3QxDDAKBgNVBAoM
A0FUTTEZMBcGA1UECwwQQVRNIENBIEF1dGhvcml0eTEUMBIGA1UEAwwLQVRNIFJv
b3QgQ0ExHDAaBgkqhkiG9w0BCQEWDWFkbWluQHBraS5jb20wHhcNMjAwMTIwMTM1
ODQyWhcNMjEwMTE5MTM1ODQyWjBxMQswCQYDVQQGEwJSTzERMA8GA1UECAwIU3Rh
dGVfUk8xDDAKBgNVBAoMA0FUTTEQMA4GA1UECwwHQVRNX1BLSTEVMBMGA1UEAwwM
UEtJU0lMQUIuY29tMRgwFgYJKoZIhvcNAQkBFglhZG1pbkBwa2kwgZ8wDQYJKoZI
hvcNAQEBBQADgY0AMIGJAoGBAN9n5zLyCkBeyw8KBUdwEm0SaEc8oQZ8Mv8u8LaS
+57hCPMVMwfNmW/qjKgq/moibBYmZagF2cCdPbVk6q5PTMJnkwEiIyHhqLVkrHJ0
x0A/q+CNtQ+PdO/p83Snpe6obElQTloTVVazqIPbwKnGrRui3BDN9vw8BEOWF6lm
MnB1AgMBAAGjezB5MAkGA1UdEwQCMAAwLAYJYIZIAYb4QgENBB8WHU9wZW5TU0wg
R2VuZXJhdGVkIENlcnRpZmljYXRlMB0GA1UdDgQWBBSba3em4Nzi3KZlKfSRlt2v
TEuhnjAfBgNVHSMEGDAWgBQF3m70Y13JliBNgGyJoPJF0f2RajANBgkqhkiG9w0B
AQsFAAOCAQEAhbakOQegza/pfjahWgZVP7lEvDYYcwI18p8EPxvPivaylU5ef6OQ
Mm8ajdKYiFxJmi+vazi/SuIWHZktw50fHK82N8v5EiKc9dcG6900v+oegiyFASvC
Gxr+rqr6cZ2xn36k99hA+rFjjC/A2F8HujAIHI/dEutAuVV8bMfWTZc8qpaHqUe4
Rm/jiGtgbnyxE33r99J4EhluMcwyDEWEFXmFIgbPBe3Ucc0H/VeURgZdK9fGRwuE
Onnta7K/hBaQ+COCAv2IG6yy21Zpu9lnuwm4bAbc7fnjEI04OkTL4+MMvbGGSZtb
TAWwX4V5ahdFwi3scv1V9H9zRtFl+OFmkQ==
-----END CERTIFICATE-----
