Certificate:
    Data:
        Version: 3 (0x2)
        Serial Number: 1 (0x1)
        Signature Algorithm: sha256WithRSAEncryption
        Issuer: C=RO, ST=Romania, L=Bucharest, O=ATM, OU=ATM Certificate Authority, CN=ATM Root CA/emailAddress=admin@atm.a
        Validity
            Not Before: Dec 20 08:44:21 2019 GMT
            Not After : Dec 19 08:44:21 2020 GMT
        Subject: C=RO, ST=Romania, O=ATM, OU=ATM_PKI, CN=PKISILAB.com/emailAddress=admin@pki
        Subject Public Key Info:
            Public Key Algorithm: rsaEncryption
                RSA Public-Key: (1024 bit)
                Modulus:
                    00:df:67:e7:32:f2:0a:40:5e:cb:0f:0a:05:47:70:
                    12:6d:12:68:47:3c:a1:06:7c:32:ff:2e:f0:b6:92:
                    fb:9e:e1:08:f3:15:33:07:cd:99:6f:ea:8c:a8:2a:
                    fe:6a:22:6c:16:26:65:a8:05:d9:c0:9d:3d:b5:64:
                    ea:ae:4f:4c:c2:67:93:01:22:23:21:e1:a8:b5:64:
                    ac:72:74:c7:40:3f:ab:e0:8d:b5:0f:8f:74:ef:e9:
                    f3:74:a7:a5:ee:a8:6c:49:50:4e:5a:13:55:56:b3:
                    a8:83:db:c0:a9:c6:ad:1b:a2:dc:10:cd:f6:fc:3c:
                    04:43:96:17:a9:66:32:70:75
                Exponent: 65537 (0x10001)
        X509v3 extensions:
            X509v3 Basic Constraints: 
                CA:FALSE
            Netscape Comment: 
                OpenSSL Generated Certificate
            X509v3 Subject Key Identifier: 
                9B:6B:77:A6:E0:DC:E2:DC:A6:65:29:F4:91:96:DD:AF:4C:4B:A1:9E
            X509v3 Authority Key Identifier: 
                keyid:DD:BB:43:76:1A:29:D3:C8:7C:7C:3D:11:23:2B:C5:1D:91:19:EE:D3

    Signature Algorithm: sha256WithRSAEncryption
         10:e5:d2:a2:23:6f:d5:50:21:ec:0c:a5:f4:04:30:4c:9b:95:
         05:32:30:ea:5c:83:09:6a:36:2b:7e:44:fc:20:c7:ec:74:e9:
         e8:3d:b1:6b:bf:7d:12:de:82:9e:26:23:59:99:99:17:6f:db:
         c1:3a:03:ce:41:e8:4d:38:77:fa:5d:69:e9:a3:1a:b3:80:76:
         0b:21:06:ba:1c:67:df:6c:ac:b5:33:d1:68:e8:11:30:40:ad:
         5e:c6:4a:14:09:8a:1d:f1:18:c2:82:2c:d3:c3:32:ce:8b:d3:
         5e:d0:d1:4a:3b:cb:ae:14:a9:c7:4e:3a:5e:b7:fe:79:73:3d:
         6a:4b:ed:3b:9a:1d:42:9b:f1:c8:02:75:ef:a9:45:c5:61:bc:
         17:b7:da:0c:e3:a7:d1:8d:51:72:7b:7d:b6:33:f1:f3:c3:06:
         04:61:ce:12:1a:ae:87:aa:f8:e5:a1:be:0e:4d:6b:8d:18:4b:
         5d:6e:57:62:0e:fd:5d:97:34:13:ac:99:ee:c5:35:c2:d3:5f:
         cc:bf:f3:9f:16:7e:44:35:2b:80:78:db:56:59:18:db:6f:3e:
         8e:7e:05:d2:2a:c1:58:56:9b:08:a3:8a:67:57:6b:82:c3:1c:
         5d:94:9e:a7:94:aa:97:f1:ca:35:8a:2d:94:c6:85:25:e6:13:
         5e:5a:6f:01
-----BEGIN CERTIFICATE-----
MIIDejCCAmKgAwIBAgIBATANBgkqhkiG9w0BAQsFADCBlzELMAkGA1UEBhMCUk8x
EDAOBgNVBAgMB1JvbWFuaWExEjAQBgNVBAcMCUJ1Y2hhcmVzdDEMMAoGA1UECgwD
QVRNMSIwIAYDVQQLDBlBVE0gQ2VydGlmaWNhdGUgQXV0aG9yaXR5MRQwEgYDVQQD
DAtBVE0gUm9vdCBDQTEaMBgGCSqGSIb3DQEJARYLYWRtaW5AYXRtLmEwHhcNMTkx
MjIwMDg0NDIxWhcNMjAxMjE5MDg0NDIxWjBwMQswCQYDVQQGEwJSTzEQMA4GA1UE
CAwHUm9tYW5pYTEMMAoGA1UECgwDQVRNMRAwDgYDVQQLDAdBVE1fUEtJMRUwEwYD
VQQDDAxQS0lTSUxBQi5jb20xGDAWBgkqhkiG9w0BCQEWCWFkbWluQHBraTCBnzAN
BgkqhkiG9w0BAQEFAAOBjQAwgYkCgYEA32fnMvIKQF7LDwoFR3ASbRJoRzyhBnwy
/y7wtpL7nuEI8xUzB82Zb+qMqCr+aiJsFiZlqAXZwJ09tWTqrk9MwmeTASIjIeGo
tWSscnTHQD+r4I21D4907+nzdKel7qhsSVBOWhNVVrOog9vAqcatG6LcEM32/DwE
Q5YXqWYycHUCAwEAAaN7MHkwCQYDVR0TBAIwADAsBglghkgBhvhCAQ0EHxYdT3Bl
blNTTCBHZW5lcmF0ZWQgQ2VydGlmaWNhdGUwHQYDVR0OBBYEFJtrd6bg3OLcpmUp
9JGW3a9MS6GeMB8GA1UdIwQYMBaAFN27Q3YaKdPIfHw9ESMrxR2RGe7TMA0GCSqG
SIb3DQEBCwUAA4IBAQAQ5dKiI2/VUCHsDKX0BDBMm5UFMjDqXIMJajYrfkT8IMfs
dOnoPbFrv30S3oKeJiNZmZkXb9vBOgPOQehNOHf6XWnpoxqzgHYLIQa6HGffbKy1
M9Fo6BEwQK1exkoUCYod8RjCgizTwzLOi9Ne0NFKO8uuFKnHTjpet/55cz1qS+07
mh1Cm/HIAnXvqUXFYbwXt9oM46fRjVFye322M/HzwwYEYc4SGq6Hqvjlob4OTWuN
GEtdbldiDv1dlzQTrJnuxTXC01/Mv/OfFn5ENSuAeNtWWRjbbz6OfgXSKsFYVpsI
o4pnV2uCwxxdlJ6nlKqX8co1ii2UxoUl5hNeWm8B
-----END CERTIFICATE-----
