Certificate:
    Data:
        Version: 3 (0x2)
        Serial Number: 4 (0x4)
        Signature Algorithm: sha256WithRSAEncryption
        Issuer: C=RO, ST=State_RO, L=Bucharest, O=ATM, OU=ATM CA Authority, CN=ATM Root CA/emailAddress=admin@pki.com
        Validity
            Not Before: Feb  1 16:49:28 2020 GMT
            Not After : Jan 31 16:49:28 2021 GMT
        Subject: C=RO, ST=State_RO, O=ATM, OU=ATM CA Authority, CN=C1/emailAddress=c1@pki.com
        Subject Public Key Info:
            Public Key Algorithm: rsaEncryption
                RSA Public-Key: (1024 bit)
                Modulus:
                    00:c7:76:25:0b:31:b3:53:63:a3:37:dc:65:d8:8b:
                    77:f2:16:04:23:19:93:36:3e:25:2f:b2:ec:b1:05:
                    46:40:9d:0c:19:2d:5d:bf:b6:98:7b:cf:57:52:7b:
                    e1:a9:5c:f8:d7:8c:0f:dc:b6:10:98:76:1b:d0:20:
                    1d:2c:a2:6d:a9:e0:64:0f:82:5c:9b:9f:c0:2b:a7:
                    6a:31:38:90:96:18:a3:ff:9a:7b:41:81:02:d8:f5:
                    91:06:8f:6a:62:06:20:93:35:c8:eb:a2:cc:27:92:
                    54:6d:ab:90:a5:3c:d4:b0:32:7c:4c:4c:7b:77:dd:
                    0a:64:2f:c9:e4:4f:eb:f7:c3
                Exponent: 65537 (0x10001)
        X509v3 extensions:
            X509v3 Basic Constraints: 
                CA:FALSE
            Netscape Comment: 
                OpenSSL Generated Certificate
            X509v3 Subject Key Identifier: 
                A2:B8:6F:B6:62:4A:96:E3:6F:BB:3F:42:A9:54:CB:DD:68:DF:EC:99
            X509v3 Authority Key Identifier: 
                keyid:05:DE:6E:F4:63:5D:C9:96:20:4D:80:6C:89:A0:F2:45:D1:FD:91:6A

    Signature Algorithm: sha256WithRSAEncryption
         60:7a:40:1b:fe:3d:61:ca:d6:ec:a4:95:76:31:41:d7:17:a1:
         a0:47:ae:fa:1e:ba:c5:26:5a:78:43:81:f7:72:bc:6f:07:e4:
         c1:06:02:3b:38:b2:47:3d:32:47:a1:bf:c8:7a:e6:03:2b:3b:
         f9:be:28:4b:11:78:08:2b:da:32:1b:5f:f4:a9:a5:7e:0d:47:
         e3:0c:eb:54:8a:5f:ab:23:56:02:05:b3:43:62:1a:eb:cb:63:
         43:08:3d:a5:a2:65:09:99:b3:fc:8c:39:1e:2c:26:03:3c:20:
         22:db:5b:25:8d:ab:51:ac:0c:d8:ec:57:89:1c:08:23:a3:c3:
         1e:1e:b7:a2:5f:66:64:5a:30:07:c9:71:1c:96:df:a5:a8:a1:
         08:6b:6b:d5:28:ba:bf:23:76:3c:7d:e0:6e:9e:ad:52:33:cb:
         a9:d4:42:a7:7d:ce:e8:84:7f:3c:cc:ec:4b:ca:bc:67:fa:f0:
         2e:4f:38:8b:10:69:79:26:db:88:e9:46:07:d3:a8:62:65:59:
         ed:48:84:d4:42:04:7a:76:d8:ad:0c:e2:6c:6a:1d:ab:b2:60:
         d2:f2:7f:5e:6d:96:9d:e3:6b:04:75:b2:bc:cf:3e:5e:83:13:
         55:b2:82:f7:8b:63:85:fe:cd:8e:8b:e0:57:8b:05:37:fe:2b:
         01:71:05:06
-----BEGIN CERTIFICATE-----
MIIDdTCCAl2gAwIBAgIBBDANBgkqhkiG9w0BAQsFADCBkTELMAkGA1UEBhMCUk8x
ETAPBgNVBAgMCFN0YXRlX1JPMRIwEAYDVQQHDAlCdWNoYXJlc3QxDDAKBgNVBAoM
A0FUTTEZMBcGA1UECwwQQVRNIENBIEF1dGhvcml0eTEUMBIGA1UEAwwLQVRNIFJv
b3QgQ0ExHDAaBgkqhkiG9w0BCQEWDWFkbWluQHBraS5jb20wHhcNMjAwMjAxMTY0
OTI4WhcNMjEwMTMxMTY0OTI4WjBxMQswCQYDVQQGEwJSTzERMA8GA1UECAwIU3Rh
dGVfUk8xDDAKBgNVBAoMA0FUTTEZMBcGA1UECwwQQVRNIENBIEF1dGhvcml0eTEL
MAkGA1UEAwwCQzExGTAXBgkqhkiG9w0BCQEWCmMxQHBraS5jb20wgZ8wDQYJKoZI
hvcNAQEBBQADgY0AMIGJAoGBAMd2JQsxs1NjozfcZdiLd/IWBCMZkzY+JS+y7LEF
RkCdDBktXb+2mHvPV1J74alc+NeMD9y2EJh2G9AgHSyibangZA+CXJufwCunajE4
kJYYo/+ae0GBAtj1kQaPamIGIJM1yOuizCeSVG2rkKU81LAyfExMe3fdCmQvyeRP
6/fDAgMBAAGjezB5MAkGA1UdEwQCMAAwLAYJYIZIAYb4QgENBB8WHU9wZW5TU0wg
R2VuZXJhdGVkIENlcnRpZmljYXRlMB0GA1UdDgQWBBSiuG+2YkqW42+7P0KpVMvd
aN/smTAfBgNVHSMEGDAWgBQF3m70Y13JliBNgGyJoPJF0f2RajANBgkqhkiG9w0B
AQsFAAOCAQEAYHpAG/49YcrW7KSVdjFB1xehoEeu+h66xSZaeEOB93K8bwfkwQYC
OziyRz0yR6G/yHrmAys7+b4oSxF4CCvaMhtf9Kmlfg1H4wzrVIpfqyNWAgWzQ2Ia
68tjQwg9paJlCZmz/Iw5HiwmAzwgIttbJY2rUawM2OxXiRwII6PDHh63ol9mZFow
B8lxHJbfpaihCGtr1Si6vyN2PH3gbp6tUjPLqdRCp33O6IR/PMzsS8q8Z/rwLk84
ixBpeSbbiOlGB9OoYmVZ7UiE1EIEenbYrQzibGodq7Jg0vJ/Xm2WneNrBHWyvM8+
XoMTVbKC94tjhf7NjovgV4sFN/4rAXEFBg==
-----END CERTIFICATE-----
