Certificate:
    Data:
        Version: 3 (0x2)
        Serial Number: 5 (0x5)
        Signature Algorithm: sha256WithRSAEncryption
        Issuer: C=RO, ST=State_RO, L=Bucharest, O=ATM, OU=ATM CA Authority, CN=ATM Root CA/emailAddress=admin@pki.com
        Validity
            Not Before: Feb  1 16:49:44 2020 GMT
            Not After : Jan 31 16:49:44 2021 GMT
        Subject: C=RO, ST=State_RO, O=ATM, OU=ATM CA Authority, CN=C2/emailAddress=c2@pki.com
        Subject Public Key Info:
            Public Key Algorithm: rsaEncryption
                RSA Public-Key: (1024 bit)
                Modulus:
                    00:e2:3b:c5:03:c6:3a:17:5b:43:8b:a7:7d:7b:0e:
                    73:25:06:49:22:e8:df:76:12:05:18:ec:05:36:88:
                    54:88:24:52:d4:41:f9:b6:f9:24:a4:e2:54:e0:65:
                    18:89:d3:32:e4:1a:6f:48:7a:42:f7:92:76:46:61:
                    c9:47:05:8a:7c:73:d1:9e:b4:d8:9a:1d:c1:2b:ce:
                    aa:5f:10:7d:73:67:55:c8:19:df:68:cf:15:74:af:
                    0a:3c:7b:a3:7c:27:48:99:2d:5e:59:36:5f:a9:25:
                    84:d3:49:7c:50:dc:b6:ce:dc:53:9b:81:a8:14:bf:
                    f5:f1:02:00:ae:be:21:ac:0f
                Exponent: 65537 (0x10001)
        X509v3 extensions:
            X509v3 Basic Constraints: 
                CA:FALSE
            Netscape Comment: 
                OpenSSL Generated Certificate
            X509v3 Subject Key Identifier: 
                7A:2E:6F:D1:5E:30:E0:76:58:81:1E:97:8E:4A:67:9B:A0:E4:7F:6E
            X509v3 Authority Key Identifier: 
                keyid:05:DE:6E:F4:63:5D:C9:96:20:4D:80:6C:89:A0:F2:45:D1:FD:91:6A

    Signature Algorithm: sha256WithRSAEncryption
         66:e5:8b:cb:6a:c9:b9:6e:a4:c0:80:ba:00:d1:d0:57:51:3e:
         ff:6b:7e:6f:22:13:36:36:c1:68:2d:93:e5:98:55:6d:14:e1:
         c7:1f:c3:2b:75:05:21:b6:97:d4:b4:5c:30:74:b9:4a:63:02:
         0d:1a:f7:a4:b8:61:01:41:3d:cc:51:dc:9d:ec:49:f8:b1:4c:
         fb:cd:a0:fe:f4:92:b4:9f:ad:cc:8e:79:10:39:bb:cb:b0:78:
         4b:f7:30:3f:0d:61:d6:c9:a5:e6:f7:35:1b:e0:b3:07:05:86:
         9c:e7:82:45:99:8c:97:09:1a:61:35:23:1b:eb:5d:a9:da:60:
         8d:67:1b:b6:e6:03:4f:71:01:ee:48:72:a4:58:9b:68:40:10:
         81:71:69:b0:a9:fd:be:b4:c1:4d:2f:c1:f0:32:67:8f:73:8e:
         40:f3:09:40:14:f6:4f:8a:df:60:d3:f7:e9:c6:27:5b:20:fa:
         58:02:1a:12:d7:52:fc:b2:b7:ad:46:af:5b:cc:59:16:d9:56:
         b5:b0:72:98:34:9e:79:0a:5e:1b:44:e0:8b:8a:65:57:63:51:
         90:d5:e5:45:90:22:dd:ba:f2:75:67:1c:44:fb:73:ea:fd:97:
         98:4b:92:12:1d:40:b5:30:84:ef:1c:ac:6d:af:b4:04:ff:25:
         05:3d:db:ef
-----BEGIN CERTIFICATE-----
MIIDdTCCAl2gAwIBAgIBBTANBgkqhkiG9w0BAQsFADCBkTELMAkGA1UEBhMCUk8x
ETAPBgNVBAgMCFN0YXRlX1JPMRIwEAYDVQQHDAlCdWNoYXJlc3QxDDAKBgNVBAoM
A0FUTTEZMBcGA1UECwwQQVRNIENBIEF1dGhvcml0eTEUMBIGA1UEAwwLQVRNIFJv
b3QgQ0ExHDAaBgkqhkiG9w0BCQEWDWFkbWluQHBraS5jb20wHhcNMjAwMjAxMTY0
OTQ0WhcNMjEwMTMxMTY0OTQ0WjBxMQswCQYDVQQGEwJSTzERMA8GA1UECAwIU3Rh
dGVfUk8xDDAKBgNVBAoMA0FUTTEZMBcGA1UECwwQQVRNIENBIEF1dGhvcml0eTEL
MAkGA1UEAwwCQzIxGTAXBgkqhkiG9w0BCQEWCmMyQHBraS5jb20wgZ8wDQYJKoZI
hvcNAQEBBQADgY0AMIGJAoGBAOI7xQPGOhdbQ4unfXsOcyUGSSLo33YSBRjsBTaI
VIgkUtRB+bb5JKTiVOBlGInTMuQab0h6QveSdkZhyUcFinxz0Z602JodwSvOql8Q
fXNnVcgZ32jPFXSvCjx7o3wnSJktXlk2X6klhNNJfFDcts7cU5uBqBS/9fECAK6+
IawPAgMBAAGjezB5MAkGA1UdEwQCMAAwLAYJYIZIAYb4QgENBB8WHU9wZW5TU0wg
R2VuZXJhdGVkIENlcnRpZmljYXRlMB0GA1UdDgQWBBR6Lm/RXjDgdliBHpeOSmeb
oOR/bjAfBgNVHSMEGDAWgBQF3m70Y13JliBNgGyJoPJF0f2RajANBgkqhkiG9w0B
AQsFAAOCAQEAZuWLy2rJuW6kwIC6ANHQV1E+/2t+byITNjbBaC2T5ZhVbRThxx/D
K3UFIbaX1LRcMHS5SmMCDRr3pLhhAUE9zFHcnexJ+LFM+82g/vSStJ+tzI55EDm7
y7B4S/cwPw1h1sml5vc1G+CzBwWGnOeCRZmMlwkaYTUjG+tdqdpgjWcbtuYDT3EB
7khypFibaEAQgXFpsKn9vrTBTS/B8DJnj3OOQPMJQBT2T4rfYNP36cYnWyD6WAIa
EtdS/LK3rUavW8xZFtlWtbBymDSeeQpeG0Tgi4plV2NRkNXlRZAi3brydWccRPtz
6v2XmEuSEh1AtTCE7xysba+0BP8lBT3b7w==
-----END CERTIFICATE-----
