Certificate:
    Data:
        Version: 3 (0x2)
        Serial Number: 7 (0x7)
        Signature Algorithm: sha256WithRSAEncryption
        Issuer: C=RO, ST=State_RO, L=Bucharest, O=ATM, OU=ATM CA Authority, CN=ATM Root CA/emailAddress=admin@pki.com
        Validity
            Not Before: Feb  1 22:36:44 2020 GMT
            Not After : Jan 31 22:36:44 2021 GMT
        Subject: C=RO, ST=State_RO, O=ATM, OU=ATM CA Authority, CN=C4/emailAddress=c4@pki.com
        Subject Public Key Info:
            Public Key Algorithm: rsaEncryption
                RSA Public-Key: (1024 bit)
                Modulus:
                    00:c8:bd:e8:d5:11:18:e2:cc:76:a9:d9:78:03:43:
                    19:f5:ea:bf:42:b2:58:c3:6a:ba:f4:72:f1:15:e2:
                    ea:6d:ea:15:dc:55:05:f9:5a:43:a3:c9:94:a7:d7:
                    89:f0:dd:06:fd:13:06:86:ac:ff:fe:0d:94:ff:7b:
                    36:af:11:ff:af:5c:30:8b:1c:6b:94:0d:51:93:ab:
                    f3:d9:7d:c3:c5:3b:a8:e9:27:0e:db:29:f6:26:1e:
                    4c:fc:08:6d:ff:1c:36:0c:9e:ae:e5:99:6a:61:cd:
                    71:5e:eb:3a:5b:13:39:63:35:39:a0:47:4e:3a:03:
                    65:98:ea:0f:9a:9e:79:f7:c3
                Exponent: 65537 (0x10001)
        X509v3 extensions:
            X509v3 Basic Constraints: 
                CA:FALSE
            Netscape Comment: 
                OpenSSL Generated Certificate
            X509v3 Subject Key Identifier: 
                1E:CE:54:D0:86:0A:49:62:5B:E0:EB:39:43:9C:37:B4:26:47:EA:82
            X509v3 Authority Key Identifier: 
                keyid:05:DE:6E:F4:63:5D:C9:96:20:4D:80:6C:89:A0:F2:45:D1:FD:91:6A

    Signature Algorithm: sha256WithRSAEncryption
         57:57:f2:d1:79:17:2d:68:c9:b7:77:72:c5:0f:eb:d2:dd:1b:
         2e:b4:74:63:71:cf:75:37:63:ec:39:92:25:01:2f:87:12:14:
         38:aa:fe:1f:b2:87:cc:a3:a9:17:6e:b1:fb:e0:1d:29:83:d1:
         de:3e:95:de:b7:28:4f:37:a6:45:3d:00:72:9c:f3:8f:a7:ed:
         9a:46:a6:fe:ea:21:aa:64:fe:de:58:5b:ad:1b:39:ba:69:19:
         78:c7:3b:ee:6f:f1:be:e5:20:2b:11:e5:23:97:c3:bb:7e:fe:
         69:b2:10:f1:19:2b:0e:cb:5b:e0:be:c9:4a:18:fe:f1:6c:28:
         0b:ce:63:fc:85:e2:62:95:37:1c:2c:01:f2:4f:4d:f3:10:88:
         6c:1a:29:5a:84:21:1a:c1:c1:e6:7e:4d:13:08:f5:39:57:dd:
         a8:7d:a8:11:67:80:51:c4:66:d8:8e:f0:b7:63:55:56:3b:00:
         e2:7e:9d:ae:11:36:fb:55:02:90:a4:61:92:b2:36:b0:ef:3e:
         a5:5c:a5:27:7f:0b:52:96:e1:4b:bf:0b:31:06:c3:7d:2b:cd:
         64:fa:3b:4f:2f:4b:7f:fd:9c:cb:3a:c9:fd:96:92:12:07:02:
         d9:8b:e6:60:53:b1:c3:9f:90:9d:9c:20:c6:7b:37:86:a6:e9:
         dd:fd:05:fe
-----BEGIN CERTIFICATE-----
MIIDdTCCAl2gAwIBAgIBBzANBgkqhkiG9w0BAQsFADCBkTELMAkGA1UEBhMCUk8x
ETAPBgNVBAgMCFN0YXRlX1JPMRIwEAYDVQQHDAlCdWNoYXJlc3QxDDAKBgNVBAoM
A0FUTTEZMBcGA1UECwwQQVRNIENBIEF1dGhvcml0eTEUMBIGA1UEAwwLQVRNIFJv
b3QgQ0ExHDAaBgkqhkiG9w0BCQEWDWFkbWluQHBraS5jb20wHhcNMjAwMjAxMjIz
NjQ0WhcNMjEwMTMxMjIzNjQ0WjBxMQswCQYDVQQGEwJSTzERMA8GA1UECAwIU3Rh
dGVfUk8xDDAKBgNVBAoMA0FUTTEZMBcGA1UECwwQQVRNIENBIEF1dGhvcml0eTEL
MAkGA1UEAwwCQzQxGTAXBgkqhkiG9w0BCQEWCmM0QHBraS5jb20wgZ8wDQYJKoZI
hvcNAQEBBQADgY0AMIGJAoGBAMi96NURGOLMdqnZeANDGfXqv0KyWMNquvRy8RXi
6m3qFdxVBflaQ6PJlKfXifDdBv0TBoas//4NlP97Nq8R/69cMIsca5QNUZOr89l9
w8U7qOknDtsp9iYeTPwIbf8cNgyeruWZamHNcV7rOlsTOWM1OaBHTjoDZZjqD5qe
effDAgMBAAGjezB5MAkGA1UdEwQCMAAwLAYJYIZIAYb4QgENBB8WHU9wZW5TU0wg
R2VuZXJhdGVkIENlcnRpZmljYXRlMB0GA1UdDgQWBBQezlTQhgpJYlvg6zlDnDe0
JkfqgjAfBgNVHSMEGDAWgBQF3m70Y13JliBNgGyJoPJF0f2RajANBgkqhkiG9w0B
AQsFAAOCAQEAV1fy0XkXLWjJt3dyxQ/r0t0bLrR0Y3HPdTdj7DmSJQEvhxIUOKr+
H7KHzKOpF26x++AdKYPR3j6V3rcoTzemRT0Acpzzj6ftmkam/uohqmT+3lhbrRs5
umkZeMc77m/xvuUgKxHlI5fDu37+abIQ8RkrDstb4L7JShj+8WwoC85j/IXiYpU3
HCwB8k9N8xCIbBopWoQhGsHB5n5NEwj1OVfdqH2oEWeAUcRm2I7wt2NVVjsA4n6d
rhE2+1UCkKRhkrI2sO8+pVylJ38LUpbhS78LMQbDfSvNZPo7Ty9Lf/2cyzrJ/ZaS
EgcC2YvmYFOxw5+QnZwgxns3hqbp3f0F/g==
-----END CERTIFICATE-----
