Certificate:
    Data:
        Version: 3 (0x2)
        Serial Number: 9 (0x9)
        Signature Algorithm: sha256WithRSAEncryption
        Issuer: C=RO, ST=State_RO, L=Bucharest, O=ATM, OU=ATM CA Authority, CN=ATM Root CA/emailAddress=admin@pki.com
        Validity
            Not Before: Feb  7 13:03:39 2020 GMT
            Not After : Feb  6 13:03:39 2021 GMT
        Subject: C=RO, ST=State_RO, O=ATM, OU=ATM CA Authority, CN=TSA2/emailAddress=tsa2@pki.com
        Subject Public Key Info:
            Public Key Algorithm: rsaEncryption
                RSA Public-Key: (1024 bit)
                Modulus:
                    00:cc:70:01:43:96:ac:79:0f:af:d9:22:c1:fb:50:
                    7c:80:dd:d5:2f:05:2d:af:13:09:d3:e1:28:01:ae:
                    1d:ce:fe:fd:d5:b1:ba:c8:88:b1:94:b1:a0:54:0b:
                    a1:7a:d0:2a:df:c3:a1:7b:5f:ad:14:90:ef:88:23:
                    0e:78:1c:61:3c:85:7b:65:23:7a:54:6c:92:73:1c:
                    32:94:e8:16:de:17:69:57:c0:07:cd:e6:fb:f2:fc:
                    52:81:4b:73:3c:63:44:f7:98:48:08:38:09:bb:65:
                    82:16:d8:b9:55:f7:49:0c:a0:00:00:85:cc:bb:b1:
                    94:13:f0:91:1f:09:4a:3d:e7
                Exponent: 65537 (0x10001)
        X509v3 extensions:
            X509v3 Authority Key Identifier: 
                keyid:05:DE:6E:F4:63:5D:C9:96:20:4D:80:6C:89:A0:F2:45:D1:FD:91:6A

            X509v3 Basic Constraints: critical
                CA:FALSE
            X509v3 Extended Key Usage: critical
                Time Stamping
            X509v3 Key Usage: critical
                Non Repudiation
            X509v3 Subject Key Identifier: 
                57:3D:CA:70:61:DF:1C:D0:81:6A:3C:E9:DF:3F:84:DB:8C:59:E2:BD
    Signature Algorithm: sha256WithRSAEncryption
         02:32:08:3e:c3:1a:5f:32:c4:fd:78:fa:b9:59:6e:ec:2d:34:
         cc:09:d7:4f:a0:47:87:00:02:8d:b8:9e:7c:ed:57:7f:c3:59:
         55:cf:ca:a3:f7:ca:40:5d:a6:3b:83:5e:3d:7a:06:55:bb:f5:
         e1:7c:8b:ac:95:98:84:ff:b7:d0:78:6c:e4:b3:35:d7:05:b4:
         95:0a:3f:0d:e9:64:5a:8c:58:1e:21:72:6c:70:eb:d4:6d:58:
         a6:51:aa:5f:61:97:0e:d7:33:3d:e4:9a:4e:de:dc:7b:89:46:
         29:5a:d8:40:bc:72:3e:0b:b8:2a:6b:71:1d:1c:e4:b8:6a:83:
         5c:28:7b:9f:9f:2a:0e:4b:e7:40:e1:ea:b0:4a:b1:c1:d6:f6:
         ab:04:51:30:ff:eb:67:ce:64:41:47:53:f2:88:5e:fb:99:49:
         c1:fe:b2:ee:ca:ee:96:8a:d9:d6:35:6d:72:01:85:ed:85:50:
         86:2c:f3:1c:0f:7b:d6:2f:ce:12:4b:fb:20:64:c9:58:3d:53:
         27:75:3d:76:8d:7d:e2:59:df:ba:50:d1:83:8c:4d:97:aa:00:
         4e:dd:7d:87:65:ee:90:f2:9f:29:54:aa:ef:10:6e:11:a0:7f:
         2c:9d:21:1a:38:e7:3e:a0:8f:ac:5b:9f:e3:48:84:81:2f:3c:
         65:08:13:ae
-----BEGIN CERTIFICATE-----
MIIDdjCCAl6gAwIBAgIBCTANBgkqhkiG9w0BAQsFADCBkTELMAkGA1UEBhMCUk8x
ETAPBgNVBAgMCFN0YXRlX1JPMRIwEAYDVQQHDAlCdWNoYXJlc3QxDDAKBgNVBAoM
A0FUTTEZMBcGA1UECwwQQVRNIENBIEF1dGhvcml0eTEUMBIGA1UEAwwLQVRNIFJv
b3QgQ0ExHDAaBgkqhkiG9w0BCQEWDWFkbWluQHBraS5jb20wHhcNMjAwMjA3MTMw
MzM5WhcNMjEwMjA2MTMwMzM5WjB1MQswCQYDVQQGEwJSTzERMA8GA1UECAwIU3Rh
dGVfUk8xDDAKBgNVBAoMA0FUTTEZMBcGA1UECwwQQVRNIENBIEF1dGhvcml0eTEN
MAsGA1UEAwwEVFNBMjEbMBkGCSqGSIb3DQEJARYMdHNhMkBwa2kuY29tMIGfMA0G
CSqGSIb3DQEBAQUAA4GNADCBiQKBgQDMcAFDlqx5D6/ZIsH7UHyA3dUvBS2vEwnT
4SgBrh3O/v3VsbrIiLGUsaBUC6F60Crfw6F7X60UkO+IIw54HGE8hXtlI3pUbJJz
HDKU6BbeF2lXwAfN5vvy/FKBS3M8Y0T3mEgIOAm7ZYIW2LlV90kMoAAAhcy7sZQT
8JEfCUo95wIDAQABo3gwdjAfBgNVHSMEGDAWgBQF3m70Y13JliBNgGyJoPJF0f2R
ajAMBgNVHRMBAf8EAjAAMBYGA1UdJQEB/wQMMAoGCCsGAQUFBwMIMA4GA1UdDwEB
/wQEAwIGQDAdBgNVHQ4EFgQUVz3KcGHfHNCBajzp3z+E24xZ4r0wDQYJKoZIhvcN
AQELBQADggEBAAIyCD7DGl8yxP14+rlZbuwtNMwJ10+gR4cAAo24nnztV3/DWVXP
yqP3ykBdpjuDXj16BlW79eF8i6yVmIT/t9B4bOSzNdcFtJUKPw3pZFqMWB4hcmxw
69RtWKZRql9hlw7XMz3kmk7e3HuJRila2EC8cj4LuCprcR0c5Lhqg1woe5+fKg5L
50Dh6rBKscHW9qsEUTD/62fOZEFHU/KIXvuZScH+su7K7paK2dY1bXIBhe2FUIYs
8xwPe9YvzhJL+yBkyVg9Uyd1PXaNfeJZ37pQ0YOMTZeqAE7dfYdl7pDynylUqu8Q
bhGgfyydIRo45z6gj6xbn+NIhIEvPGUIE64=
-----END CERTIFICATE-----
