Certificate:
    Data:
        Version: 3 (0x2)
        Serial Number:
            03:3d:01:90:72:82:5e:e3:39:7b:79:81:37:4e:16:d5
        Signature Algorithm: sha256WithRSAEncryption
        Issuer: C=RO, ST=Bucharest, O=ATM ORG, OU=ATM ROOT CA, CN=ATM COMMON NAME/emailAddress=atm_ca@pki.com
        Validity
            Not Before: Feb 17 12:16:56 2020 GMT
            Not After : Feb 16 12:16:56 2021 GMT
        Subject: C=RO, ST=Bucharest, O=ATM ORG, CN=SVA_BY_ATM_ROOT_CA
        Subject Public Key Info:
            Public Key Algorithm: rsaEncryption
                RSA Public-Key: (2048 bit)
                Modulus:
                    00:a5:50:50:db:5c:e0:12:bc:a0:f7:46:86:ec:ee:
                    0c:66:ec:f4:3b:c0:41:13:48:ba:e3:1f:ca:04:53:
                    a8:0f:d8:94:f2:37:02:d3:be:98:fb:7a:a7:10:55:
                    a1:01:84:7d:c6:b2:85:7d:10:d9:8f:26:4c:ab:1f:
                    61:08:a3:9b:60:a5:62:02:4a:ba:ef:0f:53:c8:21:
                    3d:04:db:8e:7d:f4:fd:14:52:4f:c7:d5:49:c1:ec:
                    d3:c0:c6:1c:f2:9b:47:54:ca:6f:e9:d0:db:9b:00:
                    f4:3a:c6:a3:dc:6a:50:ee:7c:29:90:3e:5e:05:db:
                    96:be:a4:c0:61:2e:a9:b5:c7:60:be:58:e2:54:7c:
                    e8:cf:86:26:35:b5:49:fa:cc:35:67:d7:40:ca:34:
                    31:5f:19:b8:66:35:70:ea:71:c9:61:c7:cf:93:f8:
                    5e:7e:af:d6:30:96:56:3a:21:8a:17:ac:4d:77:b8:
                    8f:93:1c:7d:38:97:20:44:43:85:4b:71:65:58:c6:
                    5b:3a:0a:e7:2d:6d:d6:cf:6a:f2:9e:ba:bd:36:2e:
                    9c:36:5f:ce:7d:c8:f9:0d:89:0f:7c:74:12:96:04:
                    79:70:b9:8d:8d:24:2a:fb:7d:f6:0e:a1:0b:78:d1:
                    f6:66:93:84:5e:78:d6:e8:4c:ba:3d:d3:56:50:d5:
                    42:67
                Exponent: 65537 (0x10001)
        X509v3 extensions:
            X509v3 Basic Constraints: 
                CA:FALSE
            Netscape Comment: 
                OpenSSL Generated Certificate
            X509v3 Authority Key Identifier: 
                keyid:96:45:35:33:89:B7:3E:98:16:65:F3:65:67:E7:66:35:12:39:3F:98

            Authority Information Access: 
                CA Issuers - URI:http://localhost:8080/diverse/rootca/root-ca.crt
                OCSP - URI:http://127.0.0.1:8888

            X509v3 CRL Distribution Points: 

                Full Name:
                  URI:http://localhost:8080/diverse/rootca/crl/crllist_der.crl

            X509v3 Key Usage: 
                Digital Signature, Non Repudiation, Key Encipherment
            X509v3 Extended Key Usage: 
                TLS Web Client Authentication, TLS Web Server Authentication
            X509v3 Subject Key Identifier: 
                95:B6:86:9C:28:1E:E6:30:70:2E:74:B1:19:98:DC:B9:63:32:3C:63
    Signature Algorithm: sha256WithRSAEncryption
         8b:7a:6b:f8:b3:4e:15:fa:f1:67:cf:a6:bc:1e:28:d7:65:1c:
         de:04:be:b5:4d:75:58:96:6a:3d:e0:d5:8b:55:84:16:e4:52:
         0c:ae:79:e6:eb:97:3d:ae:2e:06:ac:ed:7a:d0:d5:e9:64:a9:
         fb:1c:42:29:89:c4:34:f0:de:51:36:ce:5a:19:6e:87:fc:41:
         74:dc:84:2b:aa:3d:36:cc:4b:56:a9:6d:89:bb:91:71:7d:39:
         14:2d:d9:16:b6:00:8f:6a:6e:1c:bd:aa:49:72:a2:dd:f2:37:
         74:33:42:cf:42:51:a2:7c:0d:37:0d:71:8d:9c:29:43:b3:11:
         cc:d7:28:35:71:7b:95:b0:c4:ec:be:3a:1e:28:81:8e:93:66:
         69:2e:87:95:30:2d:a9:4c:94:d5:08:1f:7d:c7:4d:81:b3:14:
         a2:c9:b1:e6:b5:26:1f:f5:b1:1d:42:4a:ff:5f:d3:e8:d7:9f:
         21:9f:68:19:32:52:4a:3a:45:7a:9a:b8:1d:ce:01:d7:5f:c1:
         0a:3e:93:df:76:d7:9b:a3:ae:1c:e5:33:00:0a:cc:aa:15:a9:
         7e:c7:ce:8b:8d:6a:26:fb:3a:35:a8:f3:72:c1:73:e7:ca:6d:
         dc:e7:c4:53:d5:92:48:8e:9b:c3:ea:67:5a:51:4d:3d:ce:45:
         ae:58:5d:91
-----BEGIN CERTIFICATE-----
MIIExDCCA6ygAwIBAgIQAz0BkHKCXuM5e3mBN04W1TANBgkqhkiG9w0BAQsFADCB
gjELMAkGA1UEBhMCUk8xEjAQBgNVBAgMCUJ1Y2hhcmVzdDEQMA4GA1UECgwHQVRN
IE9SRzEUMBIGA1UECwwLQVRNIFJPT1QgQ0ExGDAWBgNVBAMMD0FUTSBDT01NT04g
TkFNRTEdMBsGCSqGSIb3DQEJARYOYXRtX2NhQHBraS5jb20wHhcNMjAwMjE3MTIx
NjU2WhcNMjEwMjE2MTIxNjU2WjBQMQswCQYDVQQGEwJSTzESMBAGA1UECAwJQnVj
aGFyZXN0MRAwDgYDVQQKDAdBVE0gT1JHMRswGQYDVQQDDBJTVkFfQllfQVRNX1JP
T1RfQ0EwggEiMA0GCSqGSIb3DQEBAQUAA4IBDwAwggEKAoIBAQClUFDbXOASvKD3
Robs7gxm7PQ7wEETSLrjH8oEU6gP2JTyNwLTvpj7eqcQVaEBhH3GsoV9ENmPJkyr
H2EIo5tgpWICSrrvD1PIIT0E24599P0UUk/H1UnB7NPAxhzym0dUym/p0NubAPQ6
xqPcalDufCmQPl4F25a+pMBhLqm1x2C+WOJUfOjPhiY1tUn6zDVn10DKNDFfGbhm
NXDqcclhx8+T+F5+r9YwllY6IYoXrE13uI+THH04lyBEQ4VLcWVYxls6CuctbdbP
avKeur02Lpw2X859yPkNiQ98dBKWBHlwuY2NJCr7ffYOoQt40fZmk4ReeNboTLo9
01ZQ1UJnAgMBAAGjggFlMIIBYTAJBgNVHRMEAjAAMCwGCWCGSAGG+EIBDQQfFh1P
cGVuU1NMIEdlbmVyYXRlZCBDZXJ0aWZpY2F0ZTAfBgNVHSMEGDAWgBSWRTUzibc+
mBZl82Vn52Y1Ejk/mDBvBggrBgEFBQcBAQRjMGEwPAYIKwYBBQUHMAKGMGh0dHA6
Ly9sb2NhbGhvc3Q6ODA4MC9kaXZlcnNlL3Jvb3RjYS9yb290LWNhLmNydDAhBggr
BgEFBQcwAYYVaHR0cDovLzEyNy4wLjAuMTo4ODg4MEkGA1UdHwRCMEAwPqA8oDqG
OGh0dHA6Ly9sb2NhbGhvc3Q6ODA4MC9kaXZlcnNlL3Jvb3RjYS9jcmwvY3JsbGlz
dF9kZXIuY3JsMAsGA1UdDwQEAwIF4DAdBgNVHSUEFjAUBggrBgEFBQcDAgYIKwYB
BQUHAwEwHQYDVR0OBBYEFJW2hpwoHuYwcC50sRmY3LljMjxjMA0GCSqGSIb3DQEB
CwUAA4IBAQCLemv4s04V+vFnz6a8HijXZRzeBL61TXVYlmo94NWLVYQW5FIMrnnm
65c9ri4GrO160NXpZKn7HEIpicQ08N5RNs5aGW6H/EF03IQrqj02zEtWqW2Ju5Fx
fTkULdkWtgCPam4cvapJcqLd8jd0M0LPQlGifA03DXGNnClDsxHM1yg1cXuVsMTs
vjoeKIGOk2ZpLoeVMC2pTJTVCB99x02BsxSiybHmtSYf9bEdQkr/X9Po158hn2gZ
MlJKOkV6mrgdzgHXX8EKPpPfdtebo64c5TMACsyqFal+x86LjWom+zo1qPNywXPn
ym3c58RT1ZJIjpvD6mdaUU09zkWuWF2R
-----END CERTIFICATE-----
