Certificate:
    Data:
        Version: 3 (0x2)
        Serial Number:
            03:3d:01:90:72:82:5e:e3:39:7b:79:81:37:4e:16:d7
        Signature Algorithm: sha256WithRSAEncryption
        Issuer: C=RO, ST=Bucharest, O=ATM ORG, OU=ATM ROOT CA, CN=ATM COMMON NAME/emailAddress=atm_ca@pki.com
        Validity
            Not Before: Feb 17 12:52:36 2020 GMT
            Not After : Feb 16 12:52:36 2021 GMT
        Subject: C=RO, ST=Bucharest, O=ATM ORG, CN=SVA_BY_ATM_ROOT_CA
        Subject Public Key Info:
            Public Key Algorithm: rsaEncryption
                RSA Public-Key: (2048 bit)
                Modulus:
                    00:c8:de:e1:e3:7f:0d:54:e2:c1:28:94:57:b5:e3:
                    76:8b:52:a0:5c:b5:8e:04:9a:dd:29:17:0d:c3:ac:
                    72:8a:b5:34:37:20:fc:5c:6d:c8:48:86:b7:68:f2:
                    02:86:83:69:ad:ea:ad:84:1f:bd:2c:7a:05:fc:6e:
                    48:ad:7a:97:cf:47:48:27:fa:e4:82:9d:cd:f4:0e:
                    fe:36:e4:87:46:e8:c1:ab:52:71:14:1b:4c:13:90:
                    25:a6:9c:e2:01:91:00:0e:28:98:94:2a:36:53:ca:
                    4e:7d:6a:9d:0c:aa:3d:dc:29:b2:77:9f:08:bf:58:
                    41:87:1d:76:54:2c:c3:67:74:b2:87:40:cb:8a:c2:
                    c5:c2:21:0d:59:9d:89:6b:ea:3b:5f:6a:c2:64:e5:
                    73:63:8f:95:f4:f9:15:a2:c5:5b:9f:bb:31:8e:da:
                    47:18:56:6d:c0:48:73:4e:26:1d:8c:6a:0d:54:c7:
                    9c:8d:bc:f5:e7:c3:50:cf:49:a5:ef:41:6d:b6:4b:
                    9c:67:cd:9e:01:e0:37:87:af:48:b5:70:a9:fd:6a:
                    9e:cc:2c:24:3a:db:31:56:15:da:f3:3b:2c:58:30:
                    69:74:93:43:94:95:f1:b6:98:0f:cd:6e:f0:e8:07:
                    3a:9d:32:d1:1c:94:16:f1:b3:f4:29:1c:c0:ad:84:
                    84:fd
                Exponent: 65537 (0x10001)
        X509v3 extensions:
            X509v3 Basic Constraints: 
                CA:FALSE
            Netscape Comment: 
                OpenSSL Generated Certificate
            X509v3 Authority Key Identifier: 
                keyid:96:45:35:33:89:B7:3E:98:16:65:F3:65:67:E7:66:35:12:39:3F:98

            Authority Information Access: 
                CA Issuers - URI:http://localhost:8080/diverse/rootca/root-ca.crt
                OCSP - URI:http://127.0.0.1:8888

            X509v3 CRL Distribution Points: 

                Full Name:
                  URI:http://localhost:8080/diverse/rootca/crl/crllist_der.crl

            X509v3 Key Usage: 
                Digital Signature, Non Repudiation, Key Encipherment
            X509v3 Extended Key Usage: 
                TLS Web Client Authentication, TLS Web Server Authentication
            X509v3 Subject Key Identifier: 
                12:0F:B2:D7:C2:8F:B7:94:22:CD:F5:F1:9A:7B:67:35:D2:4C:30:43
    Signature Algorithm: sha256WithRSAEncryption
         75:4f:31:12:a0:62:32:ef:80:8c:05:03:96:18:88:a2:bf:37:
         a8:25:c4:51:69:35:9e:c4:a2:26:a0:9f:b3:ff:ee:df:d0:a4:
         54:de:5f:d4:6b:29:4a:4d:2c:30:3c:73:4e:ca:c8:f6:70:76:
         79:4c:5a:6e:b3:b9:80:08:aa:a1:ce:cf:ed:b4:4c:8a:14:7d:
         de:aa:82:78:e4:a2:35:6a:a4:53:be:fd:01:1c:2d:96:44:96:
         3a:63:1f:9c:4b:ed:9b:b7:a2:a1:e7:18:b2:e3:c2:64:93:e2:
         db:59:b1:70:a8:24:f4:e0:d0:95:45:77:b2:f5:91:32:89:7a:
         2d:b4:4f:2a:9f:2e:5b:5e:ba:d3:7d:84:1f:ce:f6:d9:78:28:
         bc:3a:a0:d9:c4:73:5a:91:07:4d:96:46:34:df:f8:58:9e:83:
         dc:5e:12:ac:db:2b:9f:3f:20:6c:1d:5b:fd:28:90:c4:ed:31:
         12:5c:c7:60:5d:5b:16:6e:82:2a:57:db:c4:8e:19:39:d7:5e:
         4e:ea:9f:1b:df:ee:7b:2d:2a:91:36:68:cb:6b:8e:11:4f:a6:
         bc:88:08:25:65:01:0e:43:c9:cb:43:1a:5f:78:ab:4c:68:85:
         30:ad:82:01:e5:3b:7c:63:55:8c:52:f8:16:00:57:7f:96:5a:
         97:51:0e:aa
-----BEGIN CERTIFICATE-----
MIIExDCCA6ygAwIBAgIQAz0BkHKCXuM5e3mBN04W1zANBgkqhkiG9w0BAQsFADCB
gjELMAkGA1UEBhMCUk8xEjAQBgNVBAgMCUJ1Y2hhcmVzdDEQMA4GA1UECgwHQVRN
IE9SRzEUMBIGA1UECwwLQVRNIFJPT1QgQ0ExGDAWBgNVBAMMD0FUTSBDT01NT04g
TkFNRTEdMBsGCSqGSIb3DQEJARYOYXRtX2NhQHBraS5jb20wHhcNMjAwMjE3MTI1
MjM2WhcNMjEwMjE2MTI1MjM2WjBQMQswCQYDVQQGEwJSTzESMBAGA1UECAwJQnVj
aGFyZXN0MRAwDgYDVQQKDAdBVE0gT1JHMRswGQYDVQQDDBJTVkFfQllfQVRNX1JP
T1RfQ0EwggEiMA0GCSqGSIb3DQEBAQUAA4IBDwAwggEKAoIBAQDI3uHjfw1U4sEo
lFe143aLUqBctY4Emt0pFw3DrHKKtTQ3IPxcbchIhrdo8gKGg2mt6q2EH70segX8
bkitepfPR0gn+uSCnc30Dv425IdG6MGrUnEUG0wTkCWmnOIBkQAOKJiUKjZTyk59
ap0Mqj3cKbJ3nwi/WEGHHXZULMNndLKHQMuKwsXCIQ1ZnYlr6jtfasJk5XNjj5X0
+RWixVufuzGO2kcYVm3ASHNOJh2Mag1Ux5yNvPXnw1DPSaXvQW22S5xnzZ4B4DeH
r0i1cKn9ap7MLCQ62zFWFdrzOyxYMGl0k0OUlfG2mA/NbvDoBzqdMtEclBbxs/Qp
HMCthIT9AgMBAAGjggFlMIIBYTAJBgNVHRMEAjAAMCwGCWCGSAGG+EIBDQQfFh1P
cGVuU1NMIEdlbmVyYXRlZCBDZXJ0aWZpY2F0ZTAfBgNVHSMEGDAWgBSWRTUzibc+
mBZl82Vn52Y1Ejk/mDBvBggrBgEFBQcBAQRjMGEwPAYIKwYBBQUHMAKGMGh0dHA6
Ly9sb2NhbGhvc3Q6ODA4MC9kaXZlcnNlL3Jvb3RjYS9yb290LWNhLmNydDAhBggr
BgEFBQcwAYYVaHR0cDovLzEyNy4wLjAuMTo4ODg4MEkGA1UdHwRCMEAwPqA8oDqG
OGh0dHA6Ly9sb2NhbGhvc3Q6ODA4MC9kaXZlcnNlL3Jvb3RjYS9jcmwvY3JsbGlz
dF9kZXIuY3JsMAsGA1UdDwQEAwIF4DAdBgNVHSUEFjAUBggrBgEFBQcDAgYIKwYB
BQUHAwEwHQYDVR0OBBYEFBIPstfCj7eUIs318Zp7ZzXSTDBDMA0GCSqGSIb3DQEB
CwUAA4IBAQB1TzESoGIy74CMBQOWGIiivzeoJcRRaTWexKImoJ+z/+7f0KRU3l/U
aylKTSwwPHNOysj2cHZ5TFpus7mACKqhzs/ttEyKFH3eqoJ45KI1aqRTvv0BHC2W
RJY6Yx+cS+2bt6Kh5xiy48Jkk+LbWbFwqCT04NCVRXey9ZEyiXottE8qny5bXrrT
fYQfzvbZeCi8OqDZxHNakQdNlkY03/hYnoPcXhKs2yufPyBsHVv9KJDE7TESXMdg
XVsWboIqV9vEjhk5115O6p8b3+57LSqRNmjLa44RT6a8iAglZQEOQ8nLQxpfeKtM
aIUwrYIB5Tt8Y1WMUvgWAFd/llqXUQ6q
-----END CERTIFICATE-----
