-----BEGIN RSA PRIVATE KEY-----
Proc-Type: 4,ENCRYPTED
DEK-Info: AES-256-CBC,86D0C92DD6EA0404D5F5B6AB55E03893

r1UwmfNDH4feTVUZNYx0i9MTa8BdVcor/9YX3hRKCEOBZXA6TxufNlGODoykcpUz
8TAtWySfpFm+46w+rnDLeKgHCzuIk/iyhgF9NXjliiKsXKSef2LTIuf8NO/Sf6Zy
bCaqweCT3RClVx/UfNG0T10TmUt317DVGQrgWjF3wLI4j+ZlTOibUBBlE9pAA5Sr
TWrsTIt6XgDhbyCYbFyiLsowD2nkRKat9tkT1LAQbaJ7YbfeNHLz6rAMNFczUkkp
dKEZ1b3zwtK2hdaHF0t7sYmCXxFuklc+cfLP21GYQ9lxYXOpDziaU5mcGVdTIqMg
Vu1Y0/dOStjScapV0ipMpewo4J/wyGUx0xE4oy2hlYMDVGpp4o4fcvys6mKhYe2T
ZrSFlIhfjN1O6QrKk34WPVyUL7fuQzq+yVd0C6VdvwjUXETzbV7mYuLJPFUnUiW9
8a4DjyP9DihrcItlqBO3LAd5JYdMIt/Gql9bh2xfeKIXBRRaGKdx2zvgEq3p0LIk
dVh4PW3ogDFVeMbMoKP1hvmXivpBNaXTOSGNXbCUKXP4B5UyLrj2L/54C9tWbniJ
OXLSmzk1ZAn8wZN4ahlPu6Y9AwySPm3WE7c/Wu741cx0z4xGvuUCJ5uXasDKhGU7
vmWnHmlgTw27RPNX4IHcaDhcM60Qe4idpUAKRhn9Bk81KqVEvrxvMAbWl15FK1EI
J8MWA0AB7gjYJUvrvBKNoawuZnfxQZVX8tBlQ68sh4VgrTzjkkBnRj5+ZnMvtvl9
Ssc8qCv2RUrZvKsiZ5c621NjgSanXUJae+QdsxMAb0HP5C/+M4iNoPR9y8vNkKYv
fAezIjAdzSINefbGkKx2tvqkg2LvEYH5mV3PqDNSA4e5IhRY6ZTkf5vYIKxPaCOW
gL0BjNqa99UC6/xedhbbeKq6z4bHS+WgRVuXsvzcdCpRv35UpDR1U0kWtiGfn9UF
zW+5UefDscNld1/ltse+tsWdBc8q/lMOsJilKIsZxIfbH8xJnffiPqMqRZ4cUSqS
8rVhRuBl7z4XjDg+hMdQE5lKIwdQFrYGwON40g/bq/t+N8AwhNOYjsQrH4nuHbtt
BEjhYHoNnfCDSYXu5LrJJmd4mOATfWqcZdTRIxVGukyNhNegofMTbu1I0jhenYWl
l4Wll3+IeIQWDaI83MrQnoFdK42hCFzDYU1StItvd5iO6vS6Lwv1MkFwzkU4MQKl
hSFh/ZwhhMGkuhXNjs6t5X8qg68ZLnL3Fn+WigBZvhYL5+IFs1aRGzuPrzJAD2HT
BkuWXuMcXi7N8UYMwclkRsJkKRdTts9eFkG7ocVCioP3GKtPLi68SfsCSIWILE5Y
PuRknQ6mMYyJYVTMtYiSwSeeRbcec/07xtOy07yxHPgTe3NhAmjIoaCEgkBuxNaM
EQBNhCJm0IlffN1m0xnHJgSgBvaAfwaCbwHqvs+X6Ze9xEIyVKYo7KWWZVJvQ9ME
9h/7JmkV23zynNmqFnfEbWUQY6nvLed7vjnPGHJnqhye0ko8MVxTB22rn/ikEE1f
U7M71Gp8vQe2c1hjvdwYM8O0uWW00AF3jMlEXYCtOODOLo4+Od/0OApc6puM4yQi
-----END RSA PRIVATE KEY-----
Certificate:
    Data:
        Version: 3 (0x2)
        Serial Number: 3 (0x3)
        Signature Algorithm: sha256WithRSAEncryption
        Issuer: C=RO, ST=State_RO, L=Bucharest, O=ATM, OU=ATM CA Authority, CN=ATM Root CA/emailAddress=admin@pki.com
        Validity
            Not Before: Jan 20 14:02:59 2020 GMT
            Not After : Jan 19 14:02:59 2021 GMT
        Subject: C=RO, ST=State_RO, O=ATM, OU=KS_PKI, CN=KS.com/emailAddress=ks@pki
        Subject Public Key Info:
            Public Key Algorithm: rsaEncryption
                RSA Public-Key: (2048 bit)
                Modulus:
                    00:c5:97:f5:17:c0:e9:57:a0:76:d7:bc:79:86:7a:
                    5f:9e:bc:83:26:f7:eb:59:4b:a6:00:60:bb:c6:0f:
                    18:25:b4:e0:67:30:1f:fa:4c:da:28:41:8c:ba:00:
                    0d:61:55:f9:7e:de:6b:88:56:3e:9d:e9:b5:1b:0d:
                    5a:4a:07:d7:05:06:0b:8f:6d:3d:78:bd:43:7b:a2:
                    eb:06:68:03:78:e5:ef:b3:99:18:aa:3a:92:c0:b7:
                    05:9b:fa:b5:21:9b:cd:5f:0d:9f:cd:bc:c6:1d:41:
                    67:26:05:4b:05:96:b0:36:14:cb:57:73:10:8a:d6:
                    85:21:b5:6c:d0:cc:30:77:24:19:0c:16:90:92:fe:
                    8a:9d:7f:8b:a0:cf:16:4d:86:84:ab:7c:91:5e:94:
                    64:f7:c0:88:16:a7:c3:c0:34:41:c7:f8:bd:32:17:
                    6d:9b:d6:58:c5:08:8c:6f:51:27:4a:9e:0c:3c:40:
                    19:13:ae:ef:1a:bc:42:7c:e2:d3:19:9e:7a:fb:82:
                    57:2e:22:28:6d:5c:2f:08:ed:41:00:6c:b4:69:a8:
                    5e:6c:c1:aa:f0:f3:d3:6f:d1:41:e3:b9:78:4f:bf:
                    c9:52:80:da:bd:e6:3d:73:54:16:03:ff:01:0f:67:
                    2d:cc:e8:6a:13:46:e5:51:0e:9d:60:6c:16:9f:a1:
                    c0:33
                Exponent: 65537 (0x10001)
        X509v3 extensions:
            X509v3 Basic Constraints: 
                CA:FALSE
            Netscape Comment: 
                OpenSSL Generated Certificate
            X509v3 Subject Key Identifier: 
                1E:8F:5D:A1:BC:6B:30:8F:5D:37:E1:7F:49:1B:71:4E:87:1C:36:15
            X509v3 Authority Key Identifier: 
                keyid:05:DE:6E:F4:63:5D:C9:96:20:4D:80:6C:89:A0:F2:45:D1:FD:91:6A

    Signature Algorithm: sha256WithRSAEncryption
         75:d0:c2:15:43:b6:73:f7:5b:62:c0:d5:34:f8:af:17:ab:e7:
         80:e0:5e:9e:cf:0b:30:01:88:90:80:d1:4e:f4:40:6e:ae:ea:
         9e:77:46:cd:a4:cb:4a:9b:bf:42:36:dc:7a:0d:fa:a0:96:14:
         bc:d4:a8:c4:ee:14:91:ab:67:3e:58:07:be:27:9d:99:55:69:
         96:d3:47:a5:79:f7:58:35:08:43:60:0b:0f:fa:02:c7:b2:67:
         05:a4:15:89:08:50:a0:66:3f:17:09:d6:0f:59:42:40:fc:15:
         fe:6c:dd:74:f6:b0:24:22:3f:be:9f:c7:37:24:cc:1c:b3:0d:
         f7:22:4a:bc:27:0d:5e:8b:03:a6:62:7f:e7:0e:5a:27:df:ed:
         28:45:f5:bd:4e:b1:99:bd:e1:55:7f:c4:49:71:12:e1:8f:bc:
         bb:e2:6a:6e:30:5d:1a:f0:41:46:e5:21:b6:f7:2d:6b:1a:35:
         e6:a0:43:8c:07:e0:2d:96:e0:94:ee:98:6d:21:86:c6:74:25:
         ed:22:ad:2d:81:c9:d1:1b:d1:6d:c3:ee:9c:f6:63:01:bf:d1:
         0b:f0:13:11:5a:24:7c:aa:17:b6:1a:7f:cc:6e:6e:32:ba:18:
         d0:c6:17:99:f6:e2:83:1f:b5:ec:27:64:81:ba:be:6d:00:81:
         58:38:45:70
-----BEGIN CERTIFICATE-----
MIID7zCCAtegAwIBAgIBAzANBgkqhkiG9w0BAQsFADCBkTELMAkGA1UEBhMCUk8x
ETAPBgNVBAgMCFN0YXRlX1JPMRIwEAYDVQQHDAlCdWNoYXJlc3QxDDAKBgNVBAoM
A0FUTTEZMBcGA1UECwwQQVRNIENBIEF1dGhvcml0eTEUMBIGA1UEAwwLQVRNIFJv
b3QgQ0ExHDAaBgkqhkiG9w0BCQEWDWFkbWluQHBraS5jb20wHhcNMjAwMTIwMTQw
MjU5WhcNMjEwMTE5MTQwMjU5WjBnMQswCQYDVQQGEwJSTzERMA8GA1UECAwIU3Rh
dGVfUk8xDDAKBgNVBAoMA0FUTTEPMA0GA1UECwwGS1NfUEtJMQ8wDQYDVQQDDAZL
Uy5jb20xFTATBgkqhkiG9w0BCQEWBmtzQHBraTCCASIwDQYJKoZIhvcNAQEBBQAD
ggEPADCCAQoCggEBAMWX9RfA6Vegdte8eYZ6X568gyb361lLpgBgu8YPGCW04Gcw
H/pM2ihBjLoADWFV+X7ea4hWPp3ptRsNWkoH1wUGC49tPXi9Q3ui6wZoA3jl77OZ
GKo6ksC3BZv6tSGbzV8Nn828xh1BZyYFSwWWsDYUy1dzEIrWhSG1bNDMMHckGQwW
kJL+ip1/i6DPFk2GhKt8kV6UZPfAiBanw8A0Qcf4vTIXbZvWWMUIjG9RJ0qeDDxA
GROu7xq8Qnzi0xmeevuCVy4iKG1cLwjtQQBstGmoXmzBqvDz02/RQeO5eE+/yVKA
2r3mPXNUFgP/AQ9nLczoahNG5VEOnWBsFp+hwDMCAwEAAaN7MHkwCQYDVR0TBAIw
ADAsBglghkgBhvhCAQ0EHxYdT3BlblNTTCBHZW5lcmF0ZWQgQ2VydGlmaWNhdGUw
HQYDVR0OBBYEFB6PXaG8azCPXTfhf0kbcU6HHDYVMB8GA1UdIwQYMBaAFAXebvRj
XcmWIE2AbImg8kXR/ZFqMA0GCSqGSIb3DQEBCwUAA4IBAQB10MIVQ7Zz91tiwNU0
+K8Xq+eA4F6ezwswAYiQgNFO9EBuruqed0bNpMtKm79CNtx6DfqglhS81KjE7hSR
q2c+WAe+J52ZVWmW00elefdYNQhDYAsP+gLHsmcFpBWJCFCgZj8XCdYPWUJA/BX+
bN109rAkIj++n8c3JMwcsw33Ikq8Jw1eiwOmYn/nDlon3+0oRfW9TrGZveFVf8RJ
cRLhj7y74mpuMF0a8EFG5SG29y1rGjXmoEOMB+AtluCU7phtIYbGdCXtIq0tgcnR
G9Ftw+6c9mMBv9EL8BMRWiR8qhe2Gn/Mbm4yuhjQxheZ9uKDH7XsJ2SBur5tAIFY
OEVw
-----END CERTIFICATE-----
