Certificate:
    Data:
        Version: 3 (0x2)
        Serial Number: 8 (0x8)
        Signature Algorithm: sha256WithRSAEncryption
        Issuer: C=RO, ST=State_RO, L=Bucharest, O=ATM, OU=ATM CA Authority, CN=ATM Root CA/emailAddress=admin@pki.com
        Validity
            Not Before: Feb  7 12:37:29 2020 GMT
            Not After : Feb  6 12:37:29 2021 GMT
        Subject: C=RO, ST=State_RO, O=ATM, OU=ATM CA Authority, CN=tsa/emailAddress=tsa@pki.com
        Subject Public Key Info:
            Public Key Algorithm: rsaEncryption
                RSA Public-Key: (1024 bit)
                Modulus:
                    00:eb:a7:92:b6:5f:d2:24:39:6e:f0:94:84:a4:a3:
                    13:f3:14:8b:e0:1c:83:d7:b2:5a:16:00:17:ba:63:
                    37:9b:be:af:e4:fa:5f:f7:26:01:fa:c4:46:05:5b:
                    6a:35:e2:76:b7:06:c3:67:58:e7:64:0b:6d:8d:0d:
                    8a:16:c7:04:c2:75:ec:a1:14:cc:e9:33:db:9f:47:
                    d9:60:ff:36:95:0e:b4:dc:aa:d0:d1:73:13:18:6e:
                    9e:1c:74:ff:45:82:a3:72:d9:1a:7a:19:bb:6b:28:
                    60:78:f6:0f:69:98:f8:a9:aa:1b:45:38:ec:79:f2:
                    b3:97:2e:e8:9f:91:c0:83:91
                Exponent: 65537 (0x10001)
        X509v3 extensions:
            X509v3 Basic Constraints: 
                CA:FALSE
            Netscape Comment: 
                OpenSSL Generated Certificate
            X509v3 Subject Key Identifier: 
                78:26:02:A3:69:AC:11:B8:7D:4E:C7:1C:16:7C:8E:4C:26:9B:59:19
            X509v3 Authority Key Identifier: 
                keyid:05:DE:6E:F4:63:5D:C9:96:20:4D:80:6C:89:A0:F2:45:D1:FD:91:6A

    Signature Algorithm: sha256WithRSAEncryption
         68:3c:c3:2a:f7:20:7d:eb:51:0c:0d:c6:9b:ee:0b:eb:42:85:
         d6:10:43:f0:9c:ab:86:e7:2b:60:9d:55:04:53:36:d3:36:50:
         59:73:62:d8:aa:fd:64:27:1a:59:1b:81:f1:06:fa:8d:54:2e:
         8c:7c:1f:0a:48:e3:69:ce:76:14:d7:21:ed:74:2c:54:83:53:
         c1:5d:f8:03:f7:c7:98:7d:98:39:cb:75:9b:88:26:b3:60:63:
         ec:27:b5:20:c7:a8:9a:8a:fb:43:08:63:4f:51:99:57:eb:e5:
         65:7e:1f:e8:a1:01:19:07:4c:82:33:3d:e9:24:2c:84:40:6b:
         8d:e5:fe:e4:a2:4f:81:9e:81:27:66:bf:42:17:7b:1a:67:e1:
         e6:a6:24:76:a5:aa:58:3a:d7:e0:fb:ea:cd:f3:97:d0:ff:3e:
         c4:4a:87:9e:26:c4:16:3e:e2:79:4c:85:f7:f7:1d:9b:01:d4:
         90:07:67:e8:3d:fc:bb:52:a0:4c:d3:7f:28:2c:67:bd:c5:15:
         b9:84:49:59:04:a0:3f:50:c7:9b:58:18:ef:41:c4:79:b2:0f:
         71:46:ab:f5:7e:aa:37:14:b8:61:ca:d3:28:2c:16:dc:d9:c1:
         74:fb:16:f1:e2:54:d3:cd:fa:12:ca:d7:84:e0:7b:8a:15:c8:
         d9:e3:4e:ab
-----BEGIN CERTIFICATE-----
MIIDdzCCAl+gAwIBAgIBCDANBgkqhkiG9w0BAQsFADCBkTELMAkGA1UEBhMCUk8x
ETAPBgNVBAgMCFN0YXRlX1JPMRIwEAYDVQQHDAlCdWNoYXJlc3QxDDAKBgNVBAoM
A0FUTTEZMBcGA1UECwwQQVRNIENBIEF1dGhvcml0eTEUMBIGA1UEAwwLQVRNIFJv
b3QgQ0ExHDAaBgkqhkiG9w0BCQEWDWFkbWluQHBraS5jb20wHhcNMjAwMjA3MTIz
NzI5WhcNMjEwMjA2MTIzNzI5WjBzMQswCQYDVQQGEwJSTzERMA8GA1UECAwIU3Rh
dGVfUk8xDDAKBgNVBAoMA0FUTTEZMBcGA1UECwwQQVRNIENBIEF1dGhvcml0eTEM
MAoGA1UEAwwDdHNhMRowGAYJKoZIhvcNAQkBFgt0c2FAcGtpLmNvbTCBnzANBgkq
hkiG9w0BAQEFAAOBjQAwgYkCgYEA66eStl/SJDlu8JSEpKMT8xSL4ByD17JaFgAX
umM3m76v5Ppf9yYB+sRGBVtqNeJ2twbDZ1jnZAttjQ2KFscEwnXsoRTM6TPbn0fZ
YP82lQ603KrQ0XMTGG6eHHT/RYKjctkaehm7ayhgePYPaZj4qaobRTjsefKzly7o
n5HAg5ECAwEAAaN7MHkwCQYDVR0TBAIwADAsBglghkgBhvhCAQ0EHxYdT3BlblNT
TCBHZW5lcmF0ZWQgQ2VydGlmaWNhdGUwHQYDVR0OBBYEFHgmAqNprBG4fU7HHBZ8
jkwmm1kZMB8GA1UdIwQYMBaAFAXebvRjXcmWIE2AbImg8kXR/ZFqMA0GCSqGSIb3
DQEBCwUAA4IBAQBoPMMq9yB961EMDcab7gvrQoXWEEPwnKuG5ytgnVUEUzbTNlBZ
c2LYqv1kJxpZG4HxBvqNVC6MfB8KSONpznYU1yHtdCxUg1PBXfgD98eYfZg5y3Wb
iCazYGPsJ7Ugx6iaivtDCGNPUZlX6+Vlfh/ooQEZB0yCMz3pJCyEQGuN5f7kok+B
noEnZr9CF3saZ+HmpiR2papYOtfg++rN85fQ/z7ESoeeJsQWPuJ5TIX39x2bAdSQ
B2foPfy7UqBM038oLGe9xRW5hElZBKA/UMebWBjvQcR5sg9xRqv1fqo3FLhhytMo
LBbc2cF0+xbx4lTTzfoSyteE4HuKFcjZ406r
-----END CERTIFICATE-----
-----BEGIN CERTIFICATE-----
MIIEBTCCAu2gAwIBAgIUcIm58W0VdzZttnUjtHaql+anDrAwDQYJKoZIhvcNAQEL
BQAwgZExCzAJBgNVBAYTAlJPMREwDwYDVQQIDAhTdGF0ZV9STzESMBAGA1UEBwwJ
QnVjaGFyZXN0MQwwCgYDVQQKDANBVE0xGTAXBgNVBAsMEEFUTSBDQSBBdXRob3Jp
dHkxFDASBgNVBAMMC0FUTSBSb290IENBMRwwGgYJKoZIhvcNAQkBFg1hZG1pbkBw
a2kuY29tMB4XDTIwMDEyMDEzMjAyMFoXDTIxMDExOTEzMjAyMFowgZExCzAJBgNV
BAYTAlJPMREwDwYDVQQIDAhTdGF0ZV9STzESMBAGA1UEBwwJQnVjaGFyZXN0MQww
CgYDVQQKDANBVE0xGTAXBgNVBAsMEEFUTSBDQSBBdXRob3JpdHkxFDASBgNVBAMM
C0FUTSBSb290IENBMRwwGgYJKoZIhvcNAQkBFg1hZG1pbkBwa2kuY29tMIIBIjAN
BgkqhkiG9w0BAQEFAAOCAQ8AMIIBCgKCAQEAnEGQ34MR/ExE041w/JQBkcBkS+KB
5SdCiMDakqfp4BHifWlClRZMBoW77g25TcZy20xOhQNA5I4Dnbw40zzN96+5Dx9A
2kLGotiKuYYX15GC/HPVMVmlRXtm+wWIwnPfCD6dkT2eI65xcKsQVWuf3OiFxblu
tXKkt5PDr5FwDM3uebzkwOZYYOjmTRduwsnbGAa/ppvuWhzAs4PxdFt1AJFD3Af6
CIgCmeqY/LIN7nkajieLk4gL+aQmY1yGuGxBDo8RBReyXHykYu3Tu5/GMllFiTBn
lGhLZpby/TYsl62QCHDRucPqrZku9kdNcG5gxos3xhrI7OWfwuUxN51DvwIDAQAB
o1MwUTAdBgNVHQ4EFgQUBd5u9GNdyZYgTYBsiaDyRdH9kWowHwYDVR0jBBgwFoAU
Bd5u9GNdyZYgTYBsiaDyRdH9kWowDwYDVR0TAQH/BAUwAwEB/zANBgkqhkiG9w0B
AQsFAAOCAQEAE510iFbon+wzbsIsLR+HbXyREdlFvNzXdoNF4vQ+T68Y3RY+Uuol
+dct6g/pfyXocWatcymG8rS50YGH7t4prjqXzQz+XKxPxajly/IK+NSC7JU85sTJ
OZF13064RN3c78idIHMAVfQ3lnwXPuxEt8I2Zm374d5TaCEwZK8PQK0bXZc0FNGD
7UyA+meGKJau34iWsdw1idV8VtPh4chO8mZBpQ+Gz1vzio67CyiCNymjVjtMfDoe
44KDLnf6yml71uKembS/mLNlzVetmKe/6KQFJuRbKwD0aWTpX9NpENfoHwFOzZXw
R16RI9+yUnJ+mTxPBsZGznmQ8V6OQVljQA==
-----END CERTIFICATE-----