Certificate:
    Data:
        Version: 3 (0x2)
        Serial Number:
            03:3d:01:90:72:82:5e:e3:39:7b:79:81:37:4e:16:c3
        Signature Algorithm: sha256WithRSAEncryption
        Issuer: C=RO, ST=Bucharest, O=ATM ORG, OU=ATM ROOT CA, CN=ATM COMMON NAME/emailAddress=atm_ca@pki.com
        Validity
            Not Before: Feb  8 17:47:15 2020 GMT
            Not After : Feb  7 17:47:15 2021 GMT
        Subject: C=RO, ST=Bucharest, O=ATM ORG, OU=ATM ROOT CA, CN=ATM COMMON NAME/emailAddress=atm_ca@pki.com
        Subject Public Key Info:
            Public Key Algorithm: rsaEncryption
                RSA Public-Key: (2048 bit)
                Modulus:
                    00:d6:33:2d:d1:24:14:44:33:28:9d:16:12:e3:ac:
                    72:55:f5:be:3b:3e:6d:37:10:36:af:66:a1:bb:19:
                    ab:07:92:6a:df:40:fe:c3:c1:25:5b:e3:3b:aa:30:
                    e9:76:86:26:b3:06:99:0f:f1:47:32:2b:9e:3c:bb:
                    62:61:54:70:42:57:d6:0b:fb:49:33:cc:a6:f1:26:
                    2e:c2:25:bc:31:a4:7a:43:1b:3f:4d:3f:12:57:ed:
                    95:80:3c:36:f9:de:de:87:49:06:60:7f:7b:8b:1f:
                    fb:9a:d4:57:33:b4:0a:2f:ff:77:42:21:47:f3:10:
                    87:04:ef:5f:25:aa:ca:a1:20:82:24:12:6f:8e:32:
                    8d:38:98:41:d8:be:fa:4b:19:72:d5:ff:c5:47:f4:
                    4a:2c:e6:4c:d6:01:c9:60:31:52:14:26:67:16:74:
                    31:27:d8:fa:b5:f7:c4:1c:32:5e:71:80:bf:51:58:
                    36:8d:18:e5:47:05:ea:12:d6:48:f8:15:bd:56:e8:
                    d5:e0:72:78:a7:61:80:b9:ed:87:ae:e5:45:f9:e4:
                    cc:b7:13:fa:0d:c1:54:f8:79:fa:ab:07:f1:f3:ec:
                    77:25:86:ef:5b:05:23:f4:42:14:fd:ec:c2:f6:d9:
                    70:18:85:d4:62:4d:0a:d6:31:54:e0:54:72:89:f3:
                    48:3b
                Exponent: 65537 (0x10001)
        X509v3 extensions:
            X509v3 Basic Constraints: critical
                CA:TRUE
            X509v3 Key Usage: critical
                Certificate Sign, CRL Sign
            X509v3 Subject Key Identifier: 
                96:45:35:33:89:B7:3E:98:16:65:F3:65:67:E7:66:35:12:39:3F:98
            X509v3 Authority Key Identifier: 
                keyid:96:45:35:33:89:B7:3E:98:16:65:F3:65:67:E7:66:35:12:39:3F:98

    Signature Algorithm: sha256WithRSAEncryption
         12:0e:d4:19:12:ec:81:ff:e1:8b:24:d2:e6:da:33:ea:d3:a8:
         ee:ac:b1:ec:1d:88:6b:b2:4e:08:ea:01:9f:68:cb:24:63:1a:
         93:c9:61:c0:f8:f5:03:99:39:7f:bd:fb:e6:a8:fc:84:2b:a9:
         53:19:a7:6c:53:16:6d:f1:93:03:bd:d0:8b:5d:67:44:2b:46:
         2b:d5:60:c1:24:01:2d:0e:ae:7a:f1:7e:d1:b3:97:56:7e:b3:
         dc:f6:3f:bd:a3:6e:35:b9:20:6d:d8:7d:a7:76:72:2c:a2:05:
         6b:05:69:33:8b:e0:3a:57:e3:ad:95:48:56:4e:67:77:6f:1c:
         ed:23:44:8f:d0:02:90:40:90:e5:8f:96:c3:14:2b:9a:2d:ba:
         52:93:a1:eb:d5:01:18:b4:11:eb:6d:5b:d4:f9:a8:74:69:a0:
         b1:e5:29:9c:1c:c2:0a:6b:8e:d1:e5:88:46:e5:01:5d:bd:63:
         45:48:0e:ed:ef:a1:2a:6f:e0:63:53:51:dd:18:49:3c:0f:61:
         5b:e2:49:7c:4e:af:1d:33:49:23:3f:94:72:e7:b2:b3:0c:0e:
         2b:fe:86:c8:5f:58:52:71:b7:6f:7f:37:52:77:04:f2:41:63:
         cc:cd:7b:7f:44:d0:68:bf:fd:6f:74:77:3b:37:41:ba:08:86:
         c8:98:87:ef
-----BEGIN CERTIFICATE-----
MIID8zCCAtugAwIBAgIQAz0BkHKCXuM5e3mBN04WwzANBgkqhkiG9w0BAQsFADCB
gjELMAkGA1UEBhMCUk8xEjAQBgNVBAgMCUJ1Y2hhcmVzdDEQMA4GA1UECgwHQVRN
IE9SRzEUMBIGA1UECwwLQVRNIFJPT1QgQ0ExGDAWBgNVBAMMD0FUTSBDT01NT04g
TkFNRTEdMBsGCSqGSIb3DQEJARYOYXRtX2NhQHBraS5jb20wHhcNMjAwMjA4MTc0
NzE1WhcNMjEwMjA3MTc0NzE1WjCBgjELMAkGA1UEBhMCUk8xEjAQBgNVBAgMCUJ1
Y2hhcmVzdDEQMA4GA1UECgwHQVRNIE9SRzEUMBIGA1UECwwLQVRNIFJPT1QgQ0Ex
GDAWBgNVBAMMD0FUTSBDT01NT04gTkFNRTEdMBsGCSqGSIb3DQEJARYOYXRtX2Nh
QHBraS5jb20wggEiMA0GCSqGSIb3DQEBAQUAA4IBDwAwggEKAoIBAQDWMy3RJBRE
MyidFhLjrHJV9b47Pm03EDavZqG7GasHkmrfQP7DwSVb4zuqMOl2hiazBpkP8Ucy
K548u2JhVHBCV9YL+0kzzKbxJi7CJbwxpHpDGz9NPxJX7ZWAPDb53t6HSQZgf3uL
H/ua1FcztAov/3dCIUfzEIcE718lqsqhIIIkEm+OMo04mEHYvvpLGXLV/8VH9Eos
5kzWAclgMVIUJmcWdDEn2Pq198QcMl5xgL9RWDaNGOVHBeoS1kj4Fb1W6NXgcnin
YYC57Yeu5UX55My3E/oNwVT4efqrB/Hz7Hclhu9bBSP0QhT97ML22XAYhdRiTQrW
MVTgVHKJ80g7AgMBAAGjYzBhMA8GA1UdEwEB/wQFMAMBAf8wDgYDVR0PAQH/BAQD
AgEGMB0GA1UdDgQWBBSWRTUzibc+mBZl82Vn52Y1Ejk/mDAfBgNVHSMEGDAWgBSW
RTUzibc+mBZl82Vn52Y1Ejk/mDANBgkqhkiG9w0BAQsFAAOCAQEAEg7UGRLsgf/h
iyTS5toz6tOo7qyx7B2Ia7JOCOoBn2jLJGMak8lhwPj1A5k5f7375qj8hCupUxmn
bFMWbfGTA73Qi11nRCtGK9VgwSQBLQ6uevF+0bOXVn6z3PY/vaNuNbkgbdh9p3Zy
LKIFawVpM4vgOlfjrZVIVk5nd28c7SNEj9ACkECQ5Y+WwxQrmi26UpOh69UBGLQR
621b1PmodGmgseUpnBzCCmuO0eWIRuUBXb1jRUgO7e+hKm/gY1NR3RhJPA9hW+JJ
fE6vHTNJIz+UcueyswwOK/6GyF9YUnG3b383UncE8kFjzM17f0TQaL/9b3R3OzdB
ugiGyJiH7w==
-----END CERTIFICATE-----
