Certificate:
    Data:
        Version: 3 (0x2)
        Serial Number:
            03:3d:01:90:72:82:5e:e3:39:7b:79:81:37:4e:16:cb
        Signature Algorithm: sha256WithRSAEncryption
        Issuer: C=RO, ST=Bucharest, O=ATM ORG, OU=ATM ROOT CA, CN=ATM COMMON NAME/emailAddress=atm_ca@pki.com
        Validity
            Not Before: Feb 16 19:32:40 2020 GMT
            Not After : Feb 15 19:32:40 2021 GMT
        Subject: C=RO, ST=Bucharest, O=ATM ORG, OU=ATM ROOT CA, CN=ocsp2/emailAddress=ocsp2@pki.com
        Subject Public Key Info:
            Public Key Algorithm: rsaEncryption
                RSA Public-Key: (1024 bit)
                Modulus:
                    00:bb:8e:fe:af:32:11:ed:a8:6c:25:29:3a:66:69:
                    4c:b7:71:8b:a8:47:c6:dc:47:87:ce:0d:a0:42:74:
                    a2:e3:1a:0b:5f:cc:b2:ef:3d:e9:80:88:38:9f:b1:
                    9e:a1:f9:97:8c:c0:5d:dd:36:06:63:85:14:fa:bf:
                    68:7d:8d:9a:38:1c:b6:61:a1:2a:6a:b6:06:b1:c2:
                    57:b7:8f:ab:e9:23:c8:f7:2b:36:c7:ac:af:5d:8a:
                    5b:4d:e7:ee:ce:9a:85:91:c7:a6:2e:89:ce:5c:07:
                    04:c2:9b:a4:91:cb:12:21:ab:f5:85:55:a1:94:f3:
                    e0:d2:0f:32:68:21:f6:e7:7f
                Exponent: 65537 (0x10001)
        X509v3 extensions:
            X509v3 Basic Constraints: 
                CA:FALSE
            X509v3 Key Usage: 
                Digital Signature, Non Repudiation, Key Encipherment
            X509v3 Extended Key Usage: 
                OCSP Signing
    Signature Algorithm: sha256WithRSAEncryption
         c5:42:63:40:ec:55:80:56:11:8f:28:c1:67:00:71:ee:01:6e:
         d7:e5:c0:06:6a:5b:96:70:72:a6:6e:14:1c:4a:ae:96:a7:39:
         1e:97:00:96:b9:a5:ab:d8:27:2f:23:7e:20:ac:b4:bf:23:b8:
         76:62:40:f5:df:53:38:e2:1d:21:34:b2:c3:f6:fe:f8:82:ce:
         c8:4f:ee:5e:39:ca:0a:ba:d1:bf:66:4e:dc:ae:d1:d9:39:22:
         37:9c:c2:8d:98:8d:a2:4d:68:6c:65:6b:8a:30:60:dc:11:c7:
         2a:b7:45:47:a8:c4:54:f1:e0:5a:1f:4b:61:55:e2:a9:5e:e5:
         63:36:a3:8c:09:c5:e6:72:fa:6a:ac:e1:7e:0a:da:aa:0c:92:
         45:e6:3a:c4:d3:39:52:b6:4b:bf:27:08:db:d0:c9:f1:db:83:
         69:86:d2:ed:77:7c:d2:13:75:de:40:d3:49:f4:91:96:ac:a4:
         cd:b5:33:e1:58:d8:7e:40:d0:c6:0f:84:9d:fd:9c:64:54:55:
         a1:89:84:8d:74:6c:3d:57:66:ff:7f:14:69:36:08:58:0e:b0:
         88:fc:8e:69:1b:a3:b7:b1:85:73:0e:5e:22:b3:63:ce:67:dd:
         b1:2c:88:40:8d:29:2b:4a:e6:d7:d9:04:f9:7d:93:12:5e:80:
         3b:f8:7c:50
-----BEGIN CERTIFICATE-----
MIIDLzCCAhegAwIBAgIQAz0BkHKCXuM5e3mBN04WyzANBgkqhkiG9w0BAQsFADCB
gjELMAkGA1UEBhMCUk8xEjAQBgNVBAgMCUJ1Y2hhcmVzdDEQMA4GA1UECgwHQVRN
IE9SRzEUMBIGA1UECwwLQVRNIFJPT1QgQ0ExGDAWBgNVBAMMD0FUTSBDT01NT04g
TkFNRTEdMBsGCSqGSIb3DQEJARYOYXRtX2NhQHBraS5jb20wHhcNMjAwMjE2MTkz
MjQwWhcNMjEwMjE1MTkzMjQwWjB3MQswCQYDVQQGEwJSTzESMBAGA1UECAwJQnVj
aGFyZXN0MRAwDgYDVQQKDAdBVE0gT1JHMRQwEgYDVQQLDAtBVE0gUk9PVCBDQTEO
MAwGA1UEAwwFb2NzcDIxHDAaBgkqhkiG9w0BCQEWDW9jc3AyQHBraS5jb20wgZ8w
DQYJKoZIhvcNAQEBBQADgY0AMIGJAoGBALuO/q8yEe2obCUpOmZpTLdxi6hHxtxH
h84NoEJ0ouMaC1/Msu896YCIOJ+xnqH5l4zAXd02BmOFFPq/aH2NmjgctmGhKmq2
BrHCV7ePq+kjyPcrNsesr12KW03n7s6ahZHHpi6JzlwHBMKbpJHLEiGr9YVVoZTz
4NIPMmgh9ud/AgMBAAGjLzAtMAkGA1UdEwQCMAAwCwYDVR0PBAQDAgXgMBMGA1Ud
JQQMMAoGCCsGAQUFBwMJMA0GCSqGSIb3DQEBCwUAA4IBAQDFQmNA7FWAVhGPKMFn
AHHuAW7X5cAGaluWcHKmbhQcSq6WpzkelwCWuaWr2CcvI34grLS/I7h2YkD131M4
4h0hNLLD9v74gs7IT+5eOcoKutG/Zk7crtHZOSI3nMKNmI2iTWhsZWuKMGDcEccq
t0VHqMRU8eBaH0thVeKpXuVjNqOMCcXmcvpqrOF+CtqqDJJF5jrE0zlStku/Jwjb
0Mnx24NphtLtd3zSE3XeQNNJ9JGWrKTNtTPhWNh+QNDGD4Sd/ZxkVFWhiYSNdGw9
V2b/fxRpNghYDrCI/I5pG6O3sYVzDl4is2POZ92xLIhAjSkrSubX2QT5fZMSXoA7
+HxQ
-----END CERTIFICATE-----
