Certificate:
    Data:
        Version: 3 (0x2)
        Serial Number: 4096 (0x1000)
        Signature Algorithm: sha256WithRSAEncryption
        Issuer: C=RO, ST=Bucharest, O=ATM, OU=ATM ORG, CN=ATM COMMON NAME/emailAddress=atm@pki.com
        Validity
            Not Before: Feb  7 23:30:13 2020 GMT
            Not After : Feb  6 23:30:13 2021 GMT
        Subject: C=RO, ST=Bucharest, O=ATM, OU=ATM ORG, CN=ATM COMMON NAME/emailAddress=atm@pki.com
        Subject Public Key Info:
            Public Key Algorithm: rsaEncryption
                RSA Public-Key: (2048 bit)
                Modulus:
                    00:a1:25:70:b6:51:ec:92:d3:53:a3:7d:1c:77:0d:
                    9c:6e:b3:7c:89:cd:56:72:d7:8c:a2:35:b8:57:dc:
                    72:4a:1f:05:6c:b6:86:50:de:a7:26:3c:3c:68:53:
                    ce:ed:57:9f:85:a4:43:71:40:f8:79:7a:cc:79:2b:
                    89:8f:24:80:65:54:4b:35:2a:e1:c0:33:ec:c0:4b:
                    79:5f:37:32:0c:55:dd:2c:97:cb:17:06:73:89:56:
                    57:14:37:6c:8b:60:8f:96:da:eb:39:33:39:f4:78:
                    cc:40:dc:47:6e:e4:18:2e:0d:86:ca:7b:74:f8:4d:
                    44:dc:05:cd:5b:8e:6e:53:ae:58:d1:36:e5:b4:bf:
                    8f:b8:fc:ad:87:40:04:a1:93:21:7b:63:f2:56:db:
                    c6:26:8a:c7:3b:61:76:ee:1f:56:b7:81:bf:06:5e:
                    36:e6:37:3c:0f:4e:16:39:6c:b6:d3:6b:63:72:38:
                    a3:28:23:53:9c:e5:d6:55:5d:fe:f5:c5:29:dc:f0:
                    50:46:ee:80:36:88:be:38:f7:fb:14:33:86:9a:c2:
                    b0:9e:88:9a:2e:ef:31:3b:56:46:58:7d:d7:1e:18:
                    92:df:71:37:dd:a3:68:94:72:17:bf:fb:b5:c3:e3:
                    4a:0c:11:24:b9:4f:c9:ed:16:aa:5d:0b:b8:39:14:
                    dc:b3
                Exponent: 65537 (0x10001)
        X509v3 extensions:
            X509v3 Basic Constraints: critical
                CA:TRUE
            X509v3 Key Usage: critical
                Certificate Sign, CRL Sign
    Signature Algorithm: sha256WithRSAEncryption
         10:10:68:61:03:d5:62:3c:3d:72:8e:7e:ea:7a:9a:e5:c1:da:
         e7:f9:59:36:56:85:ee:ce:c9:6d:59:da:6b:de:77:54:4b:90:
         ee:2f:98:39:ef:b9:4d:34:9f:72:d6:0a:d8:12:2b:0b:8b:97:
         28:50:8a:9b:a3:06:65:75:ca:a7:8a:58:a0:89:c2:b4:ac:8b:
         43:8b:bc:f5:be:e6:39:c6:6e:d9:f5:c1:b3:c1:66:01:9d:fc:
         94:de:13:99:fa:83:f9:3a:3d:2a:3e:02:6e:18:a4:42:ef:bb:
         1b:80:a2:aa:87:8d:f8:89:f4:01:98:9d:57:be:ae:6f:fe:37:
         5b:29:24:5e:3f:4b:82:24:72:71:14:1d:83:b8:45:d8:c5:38:
         c9:e9:f4:ec:e6:37:3a:db:7a:b6:ad:ff:90:74:77:e7:0e:80:
         6c:a7:d6:6e:0f:0f:d4:28:c0:57:3d:06:f9:39:26:6f:9b:7d:
         56:1b:a9:d4:5e:a6:3c:e4:cf:2c:5d:12:a8:22:9c:3b:35:b9:
         40:13:8b:0d:71:84:b9:c1:68:9a:37:b5:0b:44:75:e0:1d:39:
         09:ff:ad:0a:99:f5:8f:7d:da:06:23:a9:09:c6:97:41:76:c3:
         a2:2a:7e:25:7e:11:a6:f8:e8:27:b6:ec:30:11:0e:d0:33:52:
         fe:46:e5:a2
-----BEGIN CERTIFICATE-----
MIIDjTCCAnWgAwIBAgICEAAwDQYJKoZIhvcNAQELBQAwdzELMAkGA1UEBhMCUk8x
EjAQBgNVBAgMCUJ1Y2hhcmVzdDEMMAoGA1UECgwDQVRNMRAwDgYDVQQLDAdBVE0g
T1JHMRgwFgYDVQQDDA9BVE0gQ09NTU9OIE5BTUUxGjAYBgkqhkiG9w0BCQEWC2F0
bUBwa2kuY29tMB4XDTIwMDIwNzIzMzAxM1oXDTIxMDIwNjIzMzAxM1owdzELMAkG
A1UEBhMCUk8xEjAQBgNVBAgMCUJ1Y2hhcmVzdDEMMAoGA1UECgwDQVRNMRAwDgYD
VQQLDAdBVE0gT1JHMRgwFgYDVQQDDA9BVE0gQ09NTU9OIE5BTUUxGjAYBgkqhkiG
9w0BCQEWC2F0bUBwa2kuY29tMIIBIjANBgkqhkiG9w0BAQEFAAOCAQ8AMIIBCgKC
AQEAoSVwtlHsktNTo30cdw2cbrN8ic1WcteMojW4V9xySh8FbLaGUN6nJjw8aFPO
7VefhaRDcUD4eXrMeSuJjySAZVRLNSrhwDPswEt5XzcyDFXdLJfLFwZziVZXFDds
i2CPltrrOTM59HjMQNxHbuQYLg2Gynt0+E1E3AXNW45uU65Y0TbltL+PuPyth0AE
oZMhe2PyVtvGJorHO2F27h9Wt4G/Bl425jc8D04WOWy202tjcjijKCNTnOXWVV3+
9cUp3PBQRu6ANoi+OPf7FDOGmsKwnoiaLu8xO1ZGWH3XHhiS33E33aNolHIXv/u1
w+NKDBEkuU/J7RaqXQu4ORTcswIDAQABoyMwITAPBgNVHRMBAf8EBTADAQH/MA4G
A1UdDwEB/wQEAwIBBjANBgkqhkiG9w0BAQsFAAOCAQEAEBBoYQPVYjw9co5+6nqa
5cHa5/lZNlaF7s7JbVnaa953VEuQ7i+YOe+5TTSfctYK2BIrC4uXKFCKm6MGZXXK
p4pYoInCtKyLQ4u89b7mOcZu2fXBs8FmAZ38lN4TmfqD+To9Kj4CbhikQu+7G4Ci
qoeN+In0AZidV76ub/43WykkXj9LgiRycRQdg7hF2MU4yen07OY3Ott6tq3/kHR3
5w6AbKfWbg8P1CjAVz0G+Tkmb5t9Vhup1F6mPOTPLF0SqCKcOzW5QBOLDXGEucFo
mje1C0R14B05Cf+tCpn1j33aBiOpCcaXQXbDoip+JX4RpvjoJ7bsMBEO0DNS/kbl
og==
-----END CERTIFICATE-----
