Certificate:
    Data:
        Version: 3 (0x2)
        Serial Number: 4097 (0x1001)
        Signature Algorithm: sha256WithRSAEncryption
        Issuer: C=RO, ST=Bucharest, O=ATM, OU=ATM ORG, CN=ATM COMMON NAME/emailAddress=atm@pki.com
        Validity
            Not Before: Feb  7 23:33:59 2020 GMT
            Not After : Feb  6 23:33:59 2021 GMT
        Subject: C=RO, ST=Bucharest, O=ATM, OU=ATM ORG, CN=x1/emailAddress=x1@pki.com
        Subject Public Key Info:
            Public Key Algorithm: rsaEncryption
                RSA Public-Key: (1024 bit)
                Modulus:
                    00:b5:10:73:ce:71:6e:86:3d:ce:57:69:ba:e2:ee:
                    f8:b8:e9:89:64:10:f0:78:27:31:d8:9f:5d:9a:1c:
                    06:b8:7d:b2:42:6c:c0:ae:a1:7b:8c:e4:f6:0e:af:
                    45:78:69:af:15:7b:d0:34:5d:ba:be:3f:67:64:1e:
                    c4:87:b0:c8:e7:85:9e:d8:61:01:61:6e:a6:a6:e1:
                    5e:d7:10:83:81:22:61:7d:8f:b8:41:47:c9:c8:10:
                    7b:6f:6f:51:6e:45:6a:11:80:f0:bc:b4:87:2b:78:
                    9f:47:a4:3f:51:33:78:eb:4d:5f:74:9b:72:5c:69:
                    b6:12:5a:24:6a:3d:ed:12:2d
                Exponent: 65537 (0x10001)
        X509v3 extensions:
            X509v3 Basic Constraints: 
                CA:FALSE
            Netscape Comment: 
                OpenSSL Generated Certificate
            X509v3 Subject Key Identifier: 
                51:CE:81:19:FB:1D:AF:62:F7:44:0B:ED:6D:90:B0:14:6F:5A:FC:95
            X509v3 Authority Key Identifier: 
                DirName:/C=RO/ST=Bucharest/O=ATM/OU=ATM ORG/CN=ATM COMMON NAME/emailAddress=atm@pki.com
                serial:10:00

    Signature Algorithm: sha256WithRSAEncryption
         1d:35:4b:0e:bb:fb:ef:c3:9f:25:0a:97:56:88:a6:99:ef:b5:
         62:39:c0:99:c7:16:5a:d0:b7:a8:af:11:c5:f6:4b:9d:e0:3e:
         c9:8b:b6:85:1e:ba:29:15:77:a7:f8:cf:f1:8b:ee:3f:ed:b1:
         2f:27:37:3b:f2:73:98:1b:e8:fb:0c:0c:39:e9:ba:57:bf:40:
         22:7f:17:8a:0b:71:40:5e:77:d2:9d:31:48:c9:64:91:fc:7c:
         8d:70:b6:fd:4f:ad:92:ac:3c:65:34:6f:75:a0:42:a5:3e:15:
         9b:9a:56:d1:e0:4c:eb:f6:dc:cf:f7:e8:f7:aa:ba:c5:26:6c:
         2b:5b:1d:67:b4:8b:fb:72:59:eb:df:60:12:79:21:6e:68:dd:
         1f:a6:23:ea:81:94:50:c8:ff:cb:c7:7c:fa:f8:70:48:ce:3c:
         a7:e5:77:6e:c4:a0:a8:6f:cb:84:81:5b:da:a0:f0:f0:93:9e:
         12:32:a0:21:8a:b8:e5:fd:7c:12:54:62:8b:11:5a:e9:30:b9:
         21:83:95:3a:fd:8f:6f:f5:d4:0d:65:87:37:e8:36:a0:82:84:
         a0:72:5c:46:13:2c:e3:08:00:7b:59:61:b9:55:80:79:bb:c9:
         77:3b:3a:ed:2b:0a:40:84:1f:45:e7:d1:ee:cd:50:30:d4:dc:
         b2:22:d1:4f
-----BEGIN CERTIFICATE-----
MIIDwzCCAqugAwIBAgICEAEwDQYJKoZIhvcNAQELBQAwdzELMAkGA1UEBhMCUk8x
EjAQBgNVBAgMCUJ1Y2hhcmVzdDEMMAoGA1UECgwDQVRNMRAwDgYDVQQLDAdBVE0g
T1JHMRgwFgYDVQQDDA9BVE0gQ09NTU9OIE5BTUUxGjAYBgkqhkiG9w0BCQEWC2F0
bUBwa2kuY29tMB4XDTIwMDIwNzIzMzM1OVoXDTIxMDIwNjIzMzM1OVowaTELMAkG
A1UEBhMCUk8xEjAQBgNVBAgMCUJ1Y2hhcmVzdDEMMAoGA1UECgwDQVRNMRAwDgYD
VQQLDAdBVE0gT1JHMQswCQYDVQQDDAJ4MTEZMBcGCSqGSIb3DQEJARYKeDFAcGtp
LmNvbTCBnzANBgkqhkiG9w0BAQEFAAOBjQAwgYkCgYEAtRBzznFuhj3OV2m64u74
uOmJZBDweCcx2J9dmhwGuH2yQmzArqF7jOT2Dq9FeGmvFXvQNF26vj9nZB7Eh7DI
54We2GEBYW6mpuFe1xCDgSJhfY+4QUfJyBB7b29RbkVqEYDwvLSHK3ifR6Q/UTN4
601fdJtyXGm2Elokaj3tEi0CAwEAAaOB6jCB5zAJBgNVHRMEAjAAMCwGCWCGSAGG
+EIBDQQfFh1PcGVuU1NMIEdlbmVyYXRlZCBDZXJ0aWZpY2F0ZTAdBgNVHQ4EFgQU
Uc6BGfsdr2L3RAvtbZCwFG9a/JUwgYwGA1UdIwSBhDCBgaF7pHkwdzELMAkGA1UE
BhMCUk8xEjAQBgNVBAgMCUJ1Y2hhcmVzdDEMMAoGA1UECgwDQVRNMRAwDgYDVQQL
DAdBVE0gT1JHMRgwFgYDVQQDDA9BVE0gQ09NTU9OIE5BTUUxGjAYBgkqhkiG9w0B
CQEWC2F0bUBwa2kuY29tggIQADANBgkqhkiG9w0BAQsFAAOCAQEAHTVLDrv778Of
JQqXVoimme+1YjnAmccWWtC3qK8RxfZLneA+yYu2hR66KRV3p/jP8YvuP+2xLyc3
O/JzmBvo+wwMOem6V79AIn8XigtxQF530p0xSMlkkfx8jXC2/U+tkqw8ZTRvdaBC
pT4Vm5pW0eBM6/bcz/fo96q6xSZsK1sdZ7SL+3JZ699gEnkhbmjdH6Yj6oGUUMj/
y8d8+vhwSM48p+V3bsSgqG/LhIFb2qDw8JOeEjKgIYq45f18ElRiixFa6TC5IYOV
Ov2Pb/XUDWWHN+g2oIKEoHJcRhMs4wgAe1lhuVWAebvJdzs67SsKQIQfRefR7s1Q
MNTcsiLRTw==
-----END CERTIFICATE-----
