Certificate:
    Data:
        Version: 3 (0x2)
        Serial Number:
            03:3d:01:90:72:82:5e:e3:39:7b:79:81:37:4e:16:ce
        Signature Algorithm: sha256WithRSAEncryption
        Issuer: C=RO, ST=Bucharest, O=ATM ORG, OU=ATM ROOT CA, CN=ATM COMMON NAME/emailAddress=atm_ca@pki.com
        Validity
            Not Before: Feb 16 21:19:44 2020 GMT
            Not After : Feb 15 21:19:44 2021 GMT
        Subject: C=RO, ST=Bucharest, O=ATM ORG, OU=ATM ROOT CA, CN=x8/emailAddress=x8@pki.com
        Subject Public Key Info:
            Public Key Algorithm: rsaEncryption
                RSA Public-Key: (1024 bit)
                Modulus:
                    00:c7:2b:94:72:e9:ec:a7:68:2b:41:63:03:89:3a:
                    d4:bf:42:7d:31:a7:d3:21:cb:d8:40:d3:ea:bc:26:
                    df:d9:08:4a:ed:de:0c:7d:f2:54:0a:b3:c2:86:61:
                    7b:7b:6e:78:5c:7c:9c:ad:37:07:0c:c7:00:83:64:
                    70:df:c5:e2:5b:f6:65:1c:07:9c:fa:75:41:84:ce:
                    b4:7a:80:3c:29:0e:24:99:74:ae:97:51:cf:66:60:
                    94:3d:4f:a6:d7:2d:ae:d9:9c:84:ec:65:fb:09:f3:
                    0c:e6:6a:9d:6b:50:97:e5:d5:79:60:92:1d:8f:0a:
                    39:0c:a3:4c:f0:78:6a:f3:d3
                Exponent: 65537 (0x10001)
        X509v3 extensions:
            X509v3 Basic Constraints: 
                CA:FALSE
            Netscape Comment: 
                OpenSSL Generated Certificate
            X509v3 Authority Key Identifier: 
                keyid:96:45:35:33:89:B7:3E:98:16:65:F3:65:67:E7:66:35:12:39:3F:98

            Authority Information Access: 
                CA Issuers - URI:http://localhost:8080/diverse/rootca/root-ca.crt
                OCSP - URI:http://127.0.0.1:8888

            X509v3 CRL Distribution Points: 

                Full Name:
                  URI:http://localhost:8080/diverse/rootca/crl/crllist_der.crl

            X509v3 Key Usage: 
                Digital Signature, Non Repudiation, Key Encipherment
            X509v3 Extended Key Usage: 
                TLS Web Client Authentication, TLS Web Server Authentication
            X509v3 Subject Key Identifier: 
                46:A8:CF:6E:33:86:23:2D:32:73:D0:DF:2E:95:27:E0:37:F7:21:BC
    Signature Algorithm: sha256WithRSAEncryption
         57:9b:f4:32:ad:3a:d9:87:b8:34:46:42:27:1f:65:fe:1c:54:
         fc:53:91:90:8d:d0:14:d2:d5:c4:ae:c9:01:ec:0c:0c:d1:13:
         d8:50:dc:74:9f:ab:de:66:64:ea:73:77:8a:4d:2e:66:8c:c2:
         39:d0:89:53:02:86:6c:07:c9:71:c7:78:4f:be:fa:8e:28:e7:
         8b:64:31:e2:14:9f:d5:30:d2:64:1c:39:6f:43:31:73:54:58:
         73:e5:a9:92:c2:71:93:02:01:31:3f:b8:99:53:93:9c:b1:b2:
         36:ee:61:8f:b9:19:20:fb:bc:52:cd:93:b0:04:5c:3b:4a:06:
         33:9c:20:ee:f3:b2:88:c8:a9:d8:3b:76:56:66:46:19:fd:91:
         e6:93:84:b0:10:1c:a0:61:80:71:02:41:ae:8b:14:bf:de:88:
         4d:de:e1:47:67:97:13:08:dd:e4:17:97:51:bd:85:cb:b3:4f:
         3f:0c:ce:ef:1c:09:7c:03:07:8b:e4:0a:67:cc:03:2e:a1:1e:
         0a:75:0f:75:b7:7c:90:04:d9:fc:be:87:d5:2d:16:f0:9c:c9:
         15:ac:79:a5:cc:3e:40:b6:db:f6:d8:e7:9b:f9:7d:64:9f:d4:
         08:59:3b:42:bb:6f:79:ff:b1:a2:0e:7b:da:0f:e4:2c:22:0c:
         a1:42:86:c5
-----BEGIN CERTIFICATE-----
MIIEYTCCA0mgAwIBAgIQAz0BkHKCXuM5e3mBN04WzjANBgkqhkiG9w0BAQsFADCB
gjELMAkGA1UEBhMCUk8xEjAQBgNVBAgMCUJ1Y2hhcmVzdDEQMA4GA1UECgwHQVRN
IE9SRzEUMBIGA1UECwwLQVRNIFJPT1QgQ0ExGDAWBgNVBAMMD0FUTSBDT01NT04g
TkFNRTEdMBsGCSqGSIb3DQEJARYOYXRtX2NhQHBraS5jb20wHhcNMjAwMjE2MjEx
OTQ0WhcNMjEwMjE1MjExOTQ0WjBxMQswCQYDVQQGEwJSTzESMBAGA1UECAwJQnVj
aGFyZXN0MRAwDgYDVQQKDAdBVE0gT1JHMRQwEgYDVQQLDAtBVE0gUk9PVCBDQTEL
MAkGA1UEAwwCeDgxGTAXBgkqhkiG9w0BCQEWCng4QHBraS5jb20wgZ8wDQYJKoZI
hvcNAQEBBQADgY0AMIGJAoGBAMcrlHLp7KdoK0FjA4k61L9CfTGn0yHL2EDT6rwm
39kISu3eDH3yVAqzwoZhe3tueFx8nK03BwzHAINkcN/F4lv2ZRwHnPp1QYTOtHqA
PCkOJJl0rpdRz2ZglD1PptctrtmchOxl+wnzDOZqnWtQl+XVeWCSHY8KOQyjTPB4
avPTAgMBAAGjggFlMIIBYTAJBgNVHRMEAjAAMCwGCWCGSAGG+EIBDQQfFh1PcGVu
U1NMIEdlbmVyYXRlZCBDZXJ0aWZpY2F0ZTAfBgNVHSMEGDAWgBSWRTUzibc+mBZl
82Vn52Y1Ejk/mDBvBggrBgEFBQcBAQRjMGEwPAYIKwYBBQUHMAKGMGh0dHA6Ly9s
b2NhbGhvc3Q6ODA4MC9kaXZlcnNlL3Jvb3RjYS9yb290LWNhLmNydDAhBggrBgEF
BQcwAYYVaHR0cDovLzEyNy4wLjAuMTo4ODg4MEkGA1UdHwRCMEAwPqA8oDqGOGh0
dHA6Ly9sb2NhbGhvc3Q6ODA4MC9kaXZlcnNlL3Jvb3RjYS9jcmwvY3JsbGlzdF9k
ZXIuY3JsMAsGA1UdDwQEAwIF4DAdBgNVHSUEFjAUBggrBgEFBQcDAgYIKwYBBQUH
AwEwHQYDVR0OBBYEFEaoz24zhiMtMnPQ3y6VJ+A39yG8MA0GCSqGSIb3DQEBCwUA
A4IBAQBXm/QyrTrZh7g0RkInH2X+HFT8U5GQjdAU0tXErskB7AwM0RPYUNx0n6ve
ZmTqc3eKTS5mjMI50IlTAoZsB8lxx3hPvvqOKOeLZDHiFJ/VMNJkHDlvQzFzVFhz
5amSwnGTAgExP7iZU5OcsbI27mGPuRkg+7xSzZOwBFw7SgYznCDu87KIyKnYO3ZW
ZkYZ/ZHmk4SwEBygYYBxAkGuixS/3ohN3uFHZ5cTCN3kF5dRvYXLs08/DM7vHAl8
AweL5ApnzAMuoR4KdQ91t3yQBNn8vofVLRbwnMkVrHmlzD5Attv22Oeb+X1kn9QI
WTtCu295/7GiDnvaD+QsIgyhQobF
-----END CERTIFICATE-----
