Certificate:
    Data:
        Version: 3 (0x2)
        Serial Number:
            03:3d:01:90:72:82:5e:e3:39:7b:79:81:37:4e:16:db
        Signature Algorithm: sha256WithRSAEncryption
        Issuer: C=RO, ST=Bucharest, L=Bucharest, O=SEC_ATM_CA, OU=SEC_ATM_ORG, CN=SEC_ATM_COMMON_NAME/emailAddress=sec_ca@pki.com
        Validity
            Not Before: Feb 18 00:02:15 2020 GMT
            Not After : Feb 17 00:02:15 2021 GMT
        Subject: C=RO, ST=Bucharest, O=SEC_ATM_CA, OU=SEC_ATM_ORG, CN=SEC_ATM_COMMON_NAME/emailAddress=sec_ocsp@pki.com
        Subject Public Key Info:
            Public Key Algorithm: rsaEncryption
                RSA Public-Key: (2048 bit)
                Modulus:
                    00:c6:73:81:7b:64:3e:50:5f:7b:9d:ae:65:4c:1f:
                    98:47:c7:6b:da:13:bd:8b:29:27:8a:19:91:6b:cc:
                    74:9a:7e:23:90:91:7e:cb:55:14:8d:7c:bb:11:e2:
                    bf:3c:0e:46:f5:85:e9:b2:2e:d3:40:11:4c:e7:da:
                    40:fd:29:96:10:51:41:c8:c2:c7:5a:17:8d:22:72:
                    b4:a6:4f:01:20:7c:89:d5:0c:da:9e:fe:9f:e8:cc:
                    bb:f5:ba:9d:73:21:fd:0c:1d:66:a4:5e:b1:a4:2f:
                    ef:3e:20:93:fa:3c:30:5d:00:a4:3d:12:e1:9a:c1:
                    fa:6b:9b:eb:6a:ff:71:a7:18:11:31:8f:25:de:2f:
                    89:ff:8a:6b:25:90:99:22:a3:ce:f0:a0:5d:a3:3e:
                    d3:2a:86:b3:0e:f9:39:72:c9:39:b5:11:2f:56:c3:
                    bc:cd:55:1e:68:01:f4:6e:cb:5e:85:9e:a4:5f:04:
                    6c:9d:65:13:7f:6b:72:b2:4b:26:f9:f5:ef:9b:85:
                    f6:ea:ba:d8:df:ff:a7:99:a0:90:7a:23:f9:73:b7:
                    42:93:fd:78:47:b2:07:f0:54:72:a0:db:e1:89:d2:
                    b6:a2:3b:8c:a3:15:cd:c2:49:bb:08:19:fb:ae:8e:
                    7d:04:d8:fe:b2:5b:d3:9d:d3:8a:c3:7c:60:0b:a4:
                    89:df
                Exponent: 65537 (0x10001)
        X509v3 extensions:
            X509v3 Basic Constraints: 
                CA:FALSE
            X509v3 Key Usage: 
                Digital Signature, Non Repudiation, Key Encipherment
            X509v3 Extended Key Usage: 
                OCSP Signing
            Authority Information Access: 
                CA Issuers - URI:http://localhost:8080/diverse/rootca2/root-ca.crt
                OCSP - URI:http://127.0.0.1:9999

            X509v3 CRL Distribution Points: 

                Full Name:
                  URI:http://localhost:8080/diverse/rootca2/crl/crllist_der.crl

    Signature Algorithm: sha256WithRSAEncryption
         69:32:3d:89:db:ab:6f:5c:4e:c8:19:23:97:5d:24:03:b1:b3:
         6b:83:00:70:42:69:9c:99:3d:55:25:3a:55:c7:6d:e3:82:6f:
         4a:a5:33:30:6a:0a:92:05:b8:c1:79:b0:f3:d3:81:3c:0b:de:
         84:7b:d6:68:43:9e:43:72:54:72:d5:de:8c:92:ee:59:75:01:
         0d:00:0b:c9:6b:15:52:b6:7c:7f:dd:51:78:0b:c2:9b:9e:a9:
         12:1b:3a:d8:38:2b:ad:52:e0:97:1c:42:5e:6b:5e:3c:aa:18:
         78:fb:b2:de:ba:1a:e1:a5:a0:67:33:7e:ce:f5:9a:4c:00:bc:
         83:d7:b3:56:b7:2b:9f:cd:dc:33:b2:be:87:6d:5b:5d:a5:83:
         05:f5:2a:6b:f8:11:48:17:d2:77:c9:a2:84:c2:ac:60:cb:dc:
         40:f1:e9:b3:a0:76:58:7c:09:c9:fc:b4:cb:c7:fa:e0:9a:86:
         ff:94:72:ff:53:09:70:cd:11:bc:8d:3e:5a:a0:1b:a9:0c:86:
         60:fe:74:35:cb:a0:14:ed:00:81:1b:e4:21:92:3c:50:eb:54:
         d8:e5:94:76:c0:5a:3e:86:13:b9:c4:73:dc:cf:a3:67:03:84:
         0b:ee:eb:91:ab:37:2c:f9:85:d1:ca:b6:73:c4:35:02:7c:71:
         8f:16:07:05
-----BEGIN CERTIFICATE-----
MIIEozCCA4ugAwIBAgIQAz0BkHKCXuM5e3mBN04W2zANBgkqhkiG9w0BAQsFADCB
nTELMAkGA1UEBhMCUk8xEjAQBgNVBAgMCUJ1Y2hhcmVzdDESMBAGA1UEBwwJQnVj
aGFyZXN0MRMwEQYDVQQKDApTRUNfQVRNX0NBMRQwEgYDVQQLDAtTRUNfQVRNX09S
RzEcMBoGA1UEAwwTU0VDX0FUTV9DT01NT05fTkFNRTEdMBsGCSqGSIb3DQEJARYO
c2VjX2NhQHBraS5jb20wHhcNMjAwMjE4MDAwMjE1WhcNMjEwMjE3MDAwMjE1WjCB
izELMAkGA1UEBhMCUk8xEjAQBgNVBAgMCUJ1Y2hhcmVzdDETMBEGA1UECgwKU0VD
X0FUTV9DQTEUMBIGA1UECwwLU0VDX0FUTV9PUkcxHDAaBgNVBAMME1NFQ19BVE1f
Q09NTU9OX05BTUUxHzAdBgkqhkiG9w0BCQEWEHNlY19vY3NwQHBraS5jb20wggEi
MA0GCSqGSIb3DQEBAQUAA4IBDwAwggEKAoIBAQDGc4F7ZD5QX3udrmVMH5hHx2va
E72LKSeKGZFrzHSafiOQkX7LVRSNfLsR4r88Dkb1hemyLtNAEUzn2kD9KZYQUUHI
wsdaF40icrSmTwEgfInVDNqe/p/ozLv1up1zIf0MHWakXrGkL+8+IJP6PDBdAKQ9
EuGawfprm+tq/3GnGBExjyXeL4n/imslkJkio87woF2jPtMqhrMO+TlyyTm1ES9W
w7zNVR5oAfRuy16FnqRfBGydZRN/a3KySyb59e+bhfbqutjf/6eZoJB6I/lzt0KT
/XhHsgfwVHKg2+GJ0raiO4yjFc3CSbsIGfuujn0E2P6yW9Od04rDfGALpInfAgMB
AAGjge4wgeswCQYDVR0TBAIwADALBgNVHQ8EBAMCBeAwEwYDVR0lBAwwCgYIKwYB
BQUHAwkwcAYIKwYBBQUHAQEEZDBiMD0GCCsGAQUFBzAChjFodHRwOi8vbG9jYWxo
b3N0OjgwODAvZGl2ZXJzZS9yb290Y2EyL3Jvb3QtY2EuY3J0MCEGCCsGAQUFBzAB
hhVodHRwOi8vMTI3LjAuMC4xOjk5OTkwSgYDVR0fBEMwQTA/oD2gO4Y5aHR0cDov
L2xvY2FsaG9zdDo4MDgwL2RpdmVyc2Uvcm9vdGNhMi9jcmwvY3JsbGlzdF9kZXIu
Y3JsMA0GCSqGSIb3DQEBCwUAA4IBAQBpMj2J26tvXE7IGSOXXSQDsbNrgwBwQmmc
mT1VJTpVx23jgm9KpTMwagqSBbjBebDz04E8C96Ee9ZoQ55DclRy1d6Mku5ZdQEN
AAvJaxVStnx/3VF4C8KbnqkSGzrYOCutUuCXHEJea148qhh4+7LeuhrhpaBnM37O
9ZpMALyD17NWtyufzdwzsr6HbVtdpYMF9Spr+BFIF9J3yaKEwqxgy9xA8emzoHZY
fAnJ/LTLx/rgmob/lHL/UwlwzRG8jT5aoBupDIZg/nQ1y6AU7QCBG+QhkjxQ61TY
5ZR2wFo+hhO5xHPcz6NnA4QL7uuRqzcs+YXRyrZzxDUCfHGPFgcF
-----END CERTIFICATE-----
