Certificate:
    Data:
        Version: 3 (0x2)
        Serial Number:
            03:3d:01:90:72:82:5e:e3:39:7b:79:81:37:4e:16:cd
        Signature Algorithm: sha256WithRSAEncryption
        Issuer: C=RO, ST=Bucharest, O=ATM ORG, OU=ATM ROOT CA, CN=ATM COMMON NAME/emailAddress=atm_ca@pki.com
        Validity
            Not Before: Feb 16 20:49:14 2020 GMT
            Not After : Feb 15 20:49:14 2021 GMT
        Subject: C=RO, ST=Bucharest, O=ATM ORG, OU=ATM ROOT CA, CN=x8/emailAddress=x8@pki.com
        Subject Public Key Info:
            Public Key Algorithm: rsaEncryption
                RSA Public-Key: (1024 bit)
                Modulus:
                    00:b0:da:20:e9:c8:d4:9a:fe:cb:08:80:d9:f6:e4:
                    a4:b0:08:1d:f2:36:11:ea:18:d8:18:2f:78:93:f8:
                    28:41:88:ab:96:59:8d:b5:86:1e:47:58:0d:ec:dd:
                    e9:75:09:12:2f:10:e5:3d:4a:ab:11:5b:7d:27:d9:
                    16:c1:95:2b:34:62:36:4a:ab:43:52:4d:8e:03:e0:
                    c7:48:df:ef:7d:f3:3c:9e:2e:db:05:da:37:b4:f1:
                    c5:ef:d2:5d:2f:ca:a3:f2:e1:5d:7f:d8:0f:5b:07:
                    15:75:4c:e2:38:14:08:46:53:e5:45:86:95:e1:3e:
                    25:97:05:7a:91:10:43:79:e9
                Exponent: 65537 (0x10001)
        X509v3 extensions:
            X509v3 Basic Constraints: 
                CA:FALSE
            Netscape Comment: 
                OpenSSL Generated Certificate
            X509v3 Authority Key Identifier: 
                keyid:96:45:35:33:89:B7:3E:98:16:65:F3:65:67:E7:66:35:12:39:3F:98

            Authority Information Access: 
                CA Issuers - URI:http://localhost:8080/diverse/rootca/root-ca.crt
                OCSP - URI:http://127.0.0.1:8888

            X509v3 CRL Distribution Points: 

                Full Name:
                  URI:http://localhost:8080/diverse/rootca/crl/crllist_der.crl

            X509v3 Key Usage: 
                Digital Signature, Non Repudiation, Key Encipherment, Data Encipherment, Key Agreement
            X509v3 Extended Key Usage: 
                TLS Web Client Authentication, TLS Web Server Authentication
            X509v3 Subject Key Identifier: 
                8D:33:56:2A:9A:F9:98:FE:1C:CD:A6:48:FB:E0:35:CC:1B:50:24:84
    Signature Algorithm: sha256WithRSAEncryption
         79:2e:84:40:b7:6b:71:e3:63:45:3b:64:b9:08:ff:f0:a5:5d:
         3b:a6:c9:f7:50:93:86:3b:7f:df:68:02:47:3d:6c:10:07:f8:
         83:f0:46:98:20:8c:de:6a:e6:50:85:91:1d:1f:5e:a8:1b:c7:
         e6:af:90:88:e6:9d:52:38:80:9c:0f:e9:8e:8b:ca:b4:0c:42:
         51:29:8f:1d:b6:21:8e:0d:f9:1a:13:94:10:70:a3:79:c6:73:
         5e:2f:37:4e:c8:22:a0:0c:88:66:4f:19:0a:b7:10:8f:a0:25:
         32:b6:d6:e1:20:b0:3d:af:66:8b:f1:c6:ab:c5:2a:0f:d0:61:
         a9:56:2d:ab:65:4a:55:b9:56:b2:16:06:5c:01:64:17:62:40:
         8e:8b:37:23:2d:d1:8d:dd:06:5b:83:af:21:7c:4f:59:ed:66:
         5a:48:08:71:7f:24:be:f9:13:b3:23:12:d7:dc:59:ab:92:f3:
         d3:b7:b0:21:30:66:b2:14:aa:c3:23:e2:7a:3a:ec:fd:a4:e2:
         ba:5f:b5:2c:0d:1c:25:1d:a5:3b:49:22:0b:e4:78:43:26:2a:
         a5:0c:1a:20:cc:78:9a:10:b0:06:c0:c2:28:24:15:6d:1a:f1:
         b6:26:be:19:f3:98:d5:7d:2a:1f:66:c5:89:66:86:b3:66:75:
         75:13:79:97
-----BEGIN CERTIFICATE-----
MIIEYTCCA0mgAwIBAgIQAz0BkHKCXuM5e3mBN04WzTANBgkqhkiG9w0BAQsFADCB
gjELMAkGA1UEBhMCUk8xEjAQBgNVBAgMCUJ1Y2hhcmVzdDEQMA4GA1UECgwHQVRN
IE9SRzEUMBIGA1UECwwLQVRNIFJPT1QgQ0ExGDAWBgNVBAMMD0FUTSBDT01NT04g
TkFNRTEdMBsGCSqGSIb3DQEJARYOYXRtX2NhQHBraS5jb20wHhcNMjAwMjE2MjA0
OTE0WhcNMjEwMjE1MjA0OTE0WjBxMQswCQYDVQQGEwJSTzESMBAGA1UECAwJQnVj
aGFyZXN0MRAwDgYDVQQKDAdBVE0gT1JHMRQwEgYDVQQLDAtBVE0gUk9PVCBDQTEL
MAkGA1UEAwwCeDgxGTAXBgkqhkiG9w0BCQEWCng4QHBraS5jb20wgZ8wDQYJKoZI
hvcNAQEBBQADgY0AMIGJAoGBALDaIOnI1Jr+ywiA2fbkpLAIHfI2EeoY2BgveJP4
KEGIq5ZZjbWGHkdYDezd6XUJEi8Q5T1KqxFbfSfZFsGVKzRiNkqrQ1JNjgPgx0jf
733zPJ4u2wXaN7Txxe/SXS/Ko/LhXX/YD1sHFXVM4jgUCEZT5UWGleE+JZcFepEQ
Q3npAgMBAAGjggFlMIIBYTAJBgNVHRMEAjAAMCwGCWCGSAGG+EIBDQQfFh1PcGVu
U1NMIEdlbmVyYXRlZCBDZXJ0aWZpY2F0ZTAfBgNVHSMEGDAWgBSWRTUzibc+mBZl
82Vn52Y1Ejk/mDBvBggrBgEFBQcBAQRjMGEwPAYIKwYBBQUHMAKGMGh0dHA6Ly9s
b2NhbGhvc3Q6ODA4MC9kaXZlcnNlL3Jvb3RjYS9yb290LWNhLmNydDAhBggrBgEF
BQcwAYYVaHR0cDovLzEyNy4wLjAuMTo4ODg4MEkGA1UdHwRCMEAwPqA8oDqGOGh0
dHA6Ly9sb2NhbGhvc3Q6ODA4MC9kaXZlcnNlL3Jvb3RjYS9jcmwvY3JsbGlzdF9k
ZXIuY3JsMAsGA1UdDwQEAwID+DAdBgNVHSUEFjAUBggrBgEFBQcDAgYIKwYBBQUH
AwEwHQYDVR0OBBYEFI0zViqa+Zj+HM2mSPvgNcwbUCSEMA0GCSqGSIb3DQEBCwUA
A4IBAQB5LoRAt2tx42NFO2S5CP/wpV07psn3UJOGO3/faAJHPWwQB/iD8EaYIIze
auZQhZEdH16oG8fmr5CI5p1SOICcD+mOi8q0DEJRKY8dtiGODfkaE5QQcKN5xnNe
LzdOyCKgDIhmTxkKtxCPoCUyttbhILA9r2aL8carxSoP0GGpVi2rZUpVuVayFgZc
AWQXYkCOizcjLdGN3QZbg68hfE9Z7WZaSAhxfyS++ROzIxLX3FmrkvPTt7AhMGay
FKrDI+J6Ouz9pOK6X7UsDRwlHaU7SSIL5HhDJiqlDBogzHiaELAGwMIoJBVtGvG2
Jr4Z85jVfSofZsWJZoazZnV1E3mX
-----END CERTIFICATE-----
