Certificate:
    Data:
        Version: 3 (0x2)
        Serial Number:
            03:3d:01:90:72:82:5e:e3:39:7b:79:81:37:4e:16:c8
        Signature Algorithm: sha256WithRSAEncryption
        Issuer: C=RO, ST=Bucharest, O=ATM ORG, OU=ATM ROOT CA, CN=ATM COMMON NAME/emailAddress=atm_ca@pki.com
        Validity
            Not Before: Feb  8 20:40:05 2020 GMT
            Not After : Feb  7 20:40:05 2021 GMT
        Subject: C=RO, ST=Bucharest, O=ATM ORG, OU=ATM ROOT CA, CN=x4/emailAddress=x5@pki.com
        Subject Public Key Info:
            Public Key Algorithm: rsaEncryption
                RSA Public-Key: (1024 bit)
                Modulus:
                    00:d9:ec:f9:90:19:5d:93:b3:d5:74:3e:e7:8e:c7:
                    fa:82:77:4c:f9:a5:13:26:4c:92:69:87:63:58:d2:
                    df:80:26:b5:00:d4:2e:ac:08:72:6c:fd:59:19:98:
                    a3:3b:c5:27:67:f9:1e:a4:30:7c:2e:99:f9:d0:3d:
                    d1:92:29:72:b0:06:12:b8:dd:b6:c1:96:49:f7:89:
                    64:d3:37:eb:01:34:9f:47:f6:68:2a:c2:9f:d9:e6:
                    99:25:f4:e0:bf:b2:57:d3:72:0e:b2:89:fa:c3:f0:
                    b7:00:e5:d3:c2:75:b2:de:02:c3:cc:73:02:78:77:
                    bc:9c:8b:2b:4b:f4:e6:4a:05
                Exponent: 65537 (0x10001)
        X509v3 extensions:
            X509v3 Basic Constraints: 
                CA:FALSE
            Netscape Comment: 
                OpenSSL Generated Certificate
            X509v3 Authority Key Identifier: 
                keyid:96:45:35:33:89:B7:3E:98:16:65:F3:65:67:E7:66:35:12:39:3F:98

            Authority Information Access: 
                CA Issuers - URI:http://localhost:8080/diverse/rootca/root-ca.crt
                OCSP - URI:http://127.0.0.1:8888

            X509v3 CRL Distribution Points: 

                Full Name:
                  URI:http://localhost:8080/diverse/rootca/crl/crllist_der.crl

            X509v3 Key Usage: 
                Digital Signature, Non Repudiation, Key Encipherment, Data Encipherment, Key Agreement
            X509v3 Extended Key Usage: 
                TLS Web Client Authentication, TLS Web Server Authentication
            X509v3 Subject Key Identifier: 
                15:C7:54:A7:14:5A:71:59:1D:FA:1A:05:51:61:B6:13:83:8E:02:DC
    Signature Algorithm: sha256WithRSAEncryption
         bf:ab:08:9e:61:5d:9c:43:0b:1c:43:42:49:f4:e5:5b:a9:6f:
         ae:60:8d:bc:8d:d6:d0:b4:9b:a5:fb:e6:8c:d5:2a:6e:75:05:
         8f:41:ea:67:40:28:9b:50:ea:b2:b9:8b:61:d6:e2:32:bf:cb:
         96:2e:85:85:a8:05:27:dd:b7:d2:3d:2f:28:44:9c:4f:77:c0:
         1a:f8:f1:88:7a:a3:bc:2f:29:0f:39:ea:b8:2c:36:ef:39:20:
         cc:f5:e4:6d:07:3a:f2:07:29:73:7f:ee:91:d3:7f:ac:03:78:
         8e:16:2f:57:bc:db:04:04:33:a5:ff:e8:22:b3:77:e6:b7:57:
         7a:e2:42:cd:45:6b:55:dc:76:e6:2a:fb:cb:c6:2a:aa:e0:2f:
         58:dd:7f:49:ac:68:72:a8:a6:40:c6:ae:39:0b:17:86:97:53:
         81:92:24:7a:28:08:48:4d:5a:4b:20:7c:6e:de:bc:b6:9d:1b:
         07:13:cc:b0:ce:aa:b1:1b:9d:46:5b:4a:6b:15:59:60:6f:d1:
         c6:d4:f5:20:1e:ed:cb:e1:82:ed:62:65:7c:85:02:0f:ae:ce:
         6e:f4:65:5c:13:a4:e9:41:a7:d8:b0:bf:d6:74:e5:15:4c:aa:
         22:e1:e1:29:b3:61:11:81:5a:ca:ec:71:5a:ee:da:e9:78:26:
         96:46:2b:41
-----BEGIN CERTIFICATE-----
MIIEYTCCA0mgAwIBAgIQAz0BkHKCXuM5e3mBN04WyDANBgkqhkiG9w0BAQsFADCB
gjELMAkGA1UEBhMCUk8xEjAQBgNVBAgMCUJ1Y2hhcmVzdDEQMA4GA1UECgwHQVRN
IE9SRzEUMBIGA1UECwwLQVRNIFJPT1QgQ0ExGDAWBgNVBAMMD0FUTSBDT01NT04g
TkFNRTEdMBsGCSqGSIb3DQEJARYOYXRtX2NhQHBraS5jb20wHhcNMjAwMjA4MjA0
MDA1WhcNMjEwMjA3MjA0MDA1WjBxMQswCQYDVQQGEwJSTzESMBAGA1UECAwJQnVj
aGFyZXN0MRAwDgYDVQQKDAdBVE0gT1JHMRQwEgYDVQQLDAtBVE0gUk9PVCBDQTEL
MAkGA1UEAwwCeDQxGTAXBgkqhkiG9w0BCQEWCng1QHBraS5jb20wgZ8wDQYJKoZI
hvcNAQEBBQADgY0AMIGJAoGBANns+ZAZXZOz1XQ+547H+oJ3TPmlEyZMkmmHY1jS
34AmtQDULqwIcmz9WRmYozvFJ2f5HqQwfC6Z+dA90ZIpcrAGErjdtsGWSfeJZNM3
6wE0n0f2aCrCn9nmmSX04L+yV9NyDrKJ+sPwtwDl08J1st4Cw8xzAnh3vJyLK0v0
5koFAgMBAAGjggFlMIIBYTAJBgNVHRMEAjAAMCwGCWCGSAGG+EIBDQQfFh1PcGVu
U1NMIEdlbmVyYXRlZCBDZXJ0aWZpY2F0ZTAfBgNVHSMEGDAWgBSWRTUzibc+mBZl
82Vn52Y1Ejk/mDBvBggrBgEFBQcBAQRjMGEwPAYIKwYBBQUHMAKGMGh0dHA6Ly9s
b2NhbGhvc3Q6ODA4MC9kaXZlcnNlL3Jvb3RjYS9yb290LWNhLmNydDAhBggrBgEF
BQcwAYYVaHR0cDovLzEyNy4wLjAuMTo4ODg4MEkGA1UdHwRCMEAwPqA8oDqGOGh0
dHA6Ly9sb2NhbGhvc3Q6ODA4MC9kaXZlcnNlL3Jvb3RjYS9jcmwvY3JsbGlzdF9k
ZXIuY3JsMAsGA1UdDwQEAwID+DAdBgNVHSUEFjAUBggrBgEFBQcDAgYIKwYBBQUH
AwEwHQYDVR0OBBYEFBXHVKcUWnFZHfoaBVFhthODjgLcMA0GCSqGSIb3DQEBCwUA
A4IBAQC/qwieYV2cQwscQ0JJ9OVbqW+uYI28jdbQtJul++aM1SpudQWPQepnQCib
UOqyuYth1uIyv8uWLoWFqAUn3bfSPS8oRJxPd8Aa+PGIeqO8LykPOeq4LDbvOSDM
9eRtBzryBylzf+6R03+sA3iOFi9XvNsEBDOl/+gis3fmt1d64kLNRWtV3HbmKvvL
xiqq4C9Y3X9JrGhyqKZAxq45CxeGl1OBkiR6KAhITVpLIHxu3ry2nRsHE8ywzqqx
G51GW0prFVlgb9HG1PUgHu3L4YLtYmV8hQIPrs5u9GVcE6TpQafYsL/WdOUVTKoi
4eEps2ERgVrK7HFa7trpeCaWRitB
-----END CERTIFICATE-----
