Certificate:
    Data:
        Version: 3 (0x2)
        Serial Number:
            03:3d:01:90:72:82:5e:e3:39:7b:79:81:37:4e:16:d0
        Signature Algorithm: sha256WithRSAEncryption
        Issuer: C=RO, ST=Bucharest, O=ATM ORG, OU=ATM ROOT CA, CN=ATM COMMON NAME/emailAddress=atm_ca@pki.com
        Validity
            Not Before: Feb 16 21:49:32 2020 GMT
            Not After : Feb 15 21:49:32 2021 GMT
        Subject: C=RO, ST=Bucharest, O=ATM ORG, OU=ATM ROOT CA, CN=x8/emailAddress=x8@pki.com
        Subject Public Key Info:
            Public Key Algorithm: rsaEncryption
                RSA Public-Key: (2048 bit)
                Modulus:
                    00:f9:ec:92:db:67:f1:8f:59:bf:4d:5a:eb:75:29:
                    77:c8:a1:c4:5d:19:ea:9f:03:91:bc:ee:b7:23:f7:
                    b9:c2:b2:18:bb:2b:89:8a:d3:f1:9e:ba:f2:43:2c:
                    cb:65:46:79:e5:38:4d:e4:4b:6b:65:16:1c:0a:57:
                    f9:92:3c:7c:4e:36:e1:ed:e0:88:e1:78:e9:05:97:
                    83:cf:c7:8d:b3:a4:da:74:fd:85:b9:ea:0b:d8:07:
                    09:85:79:d1:d4:5e:1b:57:73:1e:04:62:18:54:7f:
                    f0:2a:30:6f:54:1b:9d:68:e1:fc:60:79:ab:82:9c:
                    f1:c9:7e:9e:0d:83:5d:bf:7e:13:61:a7:24:83:44:
                    ee:44:ab:89:d8:8a:f1:ab:c2:23:0e:8f:b3:c1:ea:
                    d2:43:6e:47:4c:97:a4:35:28:e9:76:ed:ed:13:93:
                    b8:5a:d9:3a:bf:40:b1:50:aa:7c:21:1c:79:23:3c:
                    10:7a:4c:d1:50:e9:16:b9:75:54:b4:da:34:02:65:
                    70:2c:a5:4b:4a:9b:3c:bc:c0:2b:1c:f5:09:5a:94:
                    3e:5d:fd:2f:98:49:5d:06:b7:34:fa:40:a2:da:f4:
                    c1:93:2a:93:36:30:12:28:c2:f1:49:eb:7e:66:88:
                    02:de:af:85:80:7e:e1:97:9c:42:7b:c6:b4:1a:10:
                    4c:e9
                Exponent: 65537 (0x10001)
        X509v3 extensions:
            X509v3 Basic Constraints: 
                CA:FALSE
            Netscape Comment: 
                OpenSSL Generated Certificate
            X509v3 Authority Key Identifier: 
                keyid:96:45:35:33:89:B7:3E:98:16:65:F3:65:67:E7:66:35:12:39:3F:98

            Authority Information Access: 
                CA Issuers - URI:http://localhost:8080/diverse/rootca/root-ca.crt
                OCSP - URI:http://127.0.0.1:8888

            X509v3 CRL Distribution Points: 

                Full Name:
                  URI:http://localhost:8080/diverse/rootca/crl/crllist_der.crl

            X509v3 Key Usage: 
                Digital Signature, Non Repudiation, Key Encipherment
            X509v3 Extended Key Usage: 
                TLS Web Client Authentication, TLS Web Server Authentication
            X509v3 Subject Key Identifier: 
                E7:57:70:EB:6D:D3:3B:83:2B:C6:8D:86:93:9E:F7:A0:0D:30:FA:67
    Signature Algorithm: sha256WithRSAEncryption
         24:0e:f6:af:b6:d2:d6:f6:5f:63:10:09:27:00:c9:82:ec:db:
         44:ac:17:2b:02:36:5b:ee:bb:35:b8:2b:35:5c:48:62:f2:43:
         4f:ea:4c:e0:11:1e:11:41:84:58:c7:1e:1e:ca:1c:2d:f1:db:
         0b:99:94:50:b7:5f:25:c9:62:fb:8e:b4:07:7c:3e:24:db:06:
         5a:77:51:17:7a:5a:0b:bb:90:ed:32:41:b6:a4:b6:b9:f4:01:
         a6:81:f0:b0:68:25:32:52:fb:4b:68:2a:12:28:00:a3:c9:5b:
         dd:26:1a:41:0d:ee:4e:ad:92:f4:62:60:06:f2:27:6f:49:c6:
         e6:7d:34:55:4e:2c:17:9f:ab:0e:b1:14:73:4c:b7:2e:cf:a5:
         91:45:3b:05:e6:0f:6b:eb:14:d0:ad:3d:79:3e:15:57:0f:cc:
         a2:ee:e8:be:dc:e1:aa:95:2b:a3:e4:af:18:c2:53:df:43:b7:
         73:d5:dd:a1:a1:e6:9d:ad:58:37:6f:d2:6e:6b:d3:f2:0d:22:
         f2:65:78:3d:aa:f8:c1:0d:32:ea:8a:c6:64:b0:6a:f7:07:a2:
         a1:b7:21:48:41:9b:36:b5:f0:66:b4:fc:13:25:1b:6a:4b:f1:
         6b:a8:f9:e6:31:d7:82:68:81:6d:6b:53:6c:f8:85:e3:1f:5c:
         27:5c:ea:63
-----BEGIN CERTIFICATE-----
MIIE5TCCA82gAwIBAgIQAz0BkHKCXuM5e3mBN04W0DANBgkqhkiG9w0BAQsFADCB
gjELMAkGA1UEBhMCUk8xEjAQBgNVBAgMCUJ1Y2hhcmVzdDEQMA4GA1UECgwHQVRN
IE9SRzEUMBIGA1UECwwLQVRNIFJPT1QgQ0ExGDAWBgNVBAMMD0FUTSBDT01NT04g
TkFNRTEdMBsGCSqGSIb3DQEJARYOYXRtX2NhQHBraS5jb20wHhcNMjAwMjE2MjE0
OTMyWhcNMjEwMjE1MjE0OTMyWjBxMQswCQYDVQQGEwJSTzESMBAGA1UECAwJQnVj
aGFyZXN0MRAwDgYDVQQKDAdBVE0gT1JHMRQwEgYDVQQLDAtBVE0gUk9PVCBDQTEL
MAkGA1UEAwwCeDgxGTAXBgkqhkiG9w0BCQEWCng4QHBraS5jb20wggEiMA0GCSqG
SIb3DQEBAQUAA4IBDwAwggEKAoIBAQD57JLbZ/GPWb9NWut1KXfIocRdGeqfA5G8
7rcj97nCshi7K4mK0/GeuvJDLMtlRnnlOE3kS2tlFhwKV/mSPHxONuHt4IjheOkF
l4PPx42zpNp0/YW56gvYBwmFedHUXhtXcx4EYhhUf/AqMG9UG51o4fxgeauCnPHJ
fp4Ng12/fhNhpySDRO5Eq4nYivGrwiMOj7PB6tJDbkdMl6Q1KOl27e0Tk7ha2Tq/
QLFQqnwhHHkjPBB6TNFQ6Ra5dVS02jQCZXAspUtKmzy8wCsc9QlalD5d/S+YSV0G
tzT6QKLa9MGTKpM2MBIowvFJ635miALer4WAfuGXnEJ7xrQaEEzpAgMBAAGjggFl
MIIBYTAJBgNVHRMEAjAAMCwGCWCGSAGG+EIBDQQfFh1PcGVuU1NMIEdlbmVyYXRl
ZCBDZXJ0aWZpY2F0ZTAfBgNVHSMEGDAWgBSWRTUzibc+mBZl82Vn52Y1Ejk/mDBv
BggrBgEFBQcBAQRjMGEwPAYIKwYBBQUHMAKGMGh0dHA6Ly9sb2NhbGhvc3Q6ODA4
MC9kaXZlcnNlL3Jvb3RjYS9yb290LWNhLmNydDAhBggrBgEFBQcwAYYVaHR0cDov
LzEyNy4wLjAuMTo4ODg4MEkGA1UdHwRCMEAwPqA8oDqGOGh0dHA6Ly9sb2NhbGhv
c3Q6ODA4MC9kaXZlcnNlL3Jvb3RjYS9jcmwvY3JsbGlzdF9kZXIuY3JsMAsGA1Ud
DwQEAwIF4DAdBgNVHSUEFjAUBggrBgEFBQcDAgYIKwYBBQUHAwEwHQYDVR0OBBYE
FOdXcOtt0zuDK8aNhpOe96ANMPpnMA0GCSqGSIb3DQEBCwUAA4IBAQAkDvavttLW
9l9jEAknAMmC7NtErBcrAjZb7rs1uCs1XEhi8kNP6kzgER4RQYRYxx4eyhwt8dsL
mZRQt18lyWL7jrQHfD4k2wZad1EXeloLu5DtMkG2pLa59AGmgfCwaCUyUvtLaCoS
KACjyVvdJhpBDe5OrZL0YmAG8idvScbmfTRVTiwXn6sOsRRzTLcuz6WRRTsF5g9r
6xTQrT15PhVXD8yi7ui+3OGqlSuj5K8YwlPfQ7dz1d2hoeadrVg3b9Jua9PyDSLy
ZXg9qvjBDTLqisZksGr3B6KhtyFIQZs2tfBmtPwTJRtqS/FrqPnmMdeCaIFta1Ns
+IXjH1wnXOpj
-----END CERTIFICATE-----
