Certificate:
    Data:
        Version: 3 (0x2)
        Serial Number:
            03:3d:01:90:72:82:5e:e3:39:7b:79:81:37:4e:16:cf
        Signature Algorithm: sha256WithRSAEncryption
        Issuer: C=RO, ST=Bucharest, O=ATM ORG, OU=ATM ROOT CA, CN=ATM COMMON NAME/emailAddress=atm_ca@pki.com
        Validity
            Not Before: Feb 16 21:25:51 2020 GMT
            Not After : Feb 15 21:25:51 2021 GMT
        Subject: C=RO, ST=Bucharest, O=ATM ORG, OU=ATM ROOT CA, CN=x8/emailAddress=x8@pki.com
        Subject Public Key Info:
            Public Key Algorithm: rsaEncryption
                RSA Public-Key: (1024 bit)
                Modulus:
                    00:ee:58:12:a8:22:f2:d8:a0:e3:07:c2:76:76:d9:
                    50:e7:dd:8c:32:a3:85:0c:8c:1e:52:c6:a7:a0:c4:
                    89:85:79:fb:73:ab:65:57:cd:f0:82:c9:9f:0b:70:
                    f3:89:88:20:38:6f:db:18:f6:3e:1e:e4:be:27:0c:
                    68:01:ea:a1:6e:6c:27:16:8f:67:05:78:24:60:b6:
                    be:00:cd:f8:25:c0:b2:fc:8f:7e:62:e7:4a:4e:d4:
                    0a:43:4c:dd:57:8f:96:1c:ff:1b:c2:58:cc:2b:07:
                    d6:90:24:a2:ca:66:b7:db:95:a9:ee:68:6a:19:66:
                    34:db:1b:c6:25:cd:50:40:95
                Exponent: 65537 (0x10001)
        X509v3 extensions:
            X509v3 Basic Constraints: 
                CA:FALSE
            Netscape Comment: 
                OpenSSL Generated Certificate
            X509v3 Authority Key Identifier: 
                keyid:96:45:35:33:89:B7:3E:98:16:65:F3:65:67:E7:66:35:12:39:3F:98

            Authority Information Access: 
                CA Issuers - URI:http://localhost:8080/diverse/rootca/root-ca.crt
                OCSP - URI:http://127.0.0.1:8888

            X509v3 CRL Distribution Points: 

                Full Name:
                  URI:http://localhost:8080/diverse/rootca/crl/crllist_der.crl

            X509v3 Key Usage: 
                Digital Signature, Non Repudiation, Key Encipherment
            X509v3 Extended Key Usage: 
                TLS Web Client Authentication, TLS Web Server Authentication
            X509v3 Subject Key Identifier: 
                4B:F1:19:34:1C:B0:2A:5C:53:5D:46:8E:25:97:E0:20:F2:D6:3E:50
    Signature Algorithm: sha256WithRSAEncryption
         76:a3:2c:e0:9b:72:55:64:f2:a1:9f:0b:88:82:ec:5c:ca:8b:
         4a:d8:2a:a2:05:49:9e:98:b6:e7:15:d5:38:16:40:ad:ec:6b:
         91:7f:69:97:1b:7a:80:f8:2a:b1:8c:1c:f0:2e:fe:02:0a:f3:
         06:60:2d:34:e8:78:03:93:16:fb:b6:db:52:73:c3:f0:79:d3:
         9c:81:d3:96:43:fc:cc:9f:a3:48:1d:11:9d:56:d6:67:ae:90:
         17:3d:79:b6:b0:3d:0c:60:c2:29:67:14:6a:13:c2:27:1d:20:
         f1:2d:fa:d9:f0:85:d5:3a:3e:0b:59:c4:a7:74:4c:4a:9c:fe:
         04:b8:e2:d0:32:61:74:99:7d:46:4a:af:f2:52:1f:d6:5f:9b:
         3c:a8:bd:ff:da:65:f2:15:90:03:c0:ac:a8:35:a5:86:f8:0c:
         b7:41:41:6e:97:67:1a:99:4b:64:b1:b2:b5:dd:2e:80:fc:45:
         71:08:1b:47:58:99:39:34:ad:8d:a8:e8:ff:92:7c:cf:c1:df:
         a7:75:0b:35:ff:ac:8b:e3:0f:3f:16:10:50:3b:a1:70:69:62:
         28:0b:ef:50:8d:45:5e:9c:5a:1f:a8:50:26:82:03:84:0b:fd:
         63:71:3c:87:84:f7:19:06:90:56:b1:83:3b:38:08:d8:c5:aa:
         44:5c:a0:ee
-----BEGIN CERTIFICATE-----
MIIEYTCCA0mgAwIBAgIQAz0BkHKCXuM5e3mBN04WzzANBgkqhkiG9w0BAQsFADCB
gjELMAkGA1UEBhMCUk8xEjAQBgNVBAgMCUJ1Y2hhcmVzdDEQMA4GA1UECgwHQVRN
IE9SRzEUMBIGA1UECwwLQVRNIFJPT1QgQ0ExGDAWBgNVBAMMD0FUTSBDT01NT04g
TkFNRTEdMBsGCSqGSIb3DQEJARYOYXRtX2NhQHBraS5jb20wHhcNMjAwMjE2MjEy
NTUxWhcNMjEwMjE1MjEyNTUxWjBxMQswCQYDVQQGEwJSTzESMBAGA1UECAwJQnVj
aGFyZXN0MRAwDgYDVQQKDAdBVE0gT1JHMRQwEgYDVQQLDAtBVE0gUk9PVCBDQTEL
MAkGA1UEAwwCeDgxGTAXBgkqhkiG9w0BCQEWCng4QHBraS5jb20wgZ8wDQYJKoZI
hvcNAQEBBQADgY0AMIGJAoGBAO5YEqgi8tig4wfCdnbZUOfdjDKjhQyMHlLGp6DE
iYV5+3OrZVfN8ILJnwtw84mIIDhv2xj2Ph7kvicMaAHqoW5sJxaPZwV4JGC2vgDN
+CXAsvyPfmLnSk7UCkNM3VePlhz/G8JYzCsH1pAkospmt9uVqe5oahlmNNsbxiXN
UECVAgMBAAGjggFlMIIBYTAJBgNVHRMEAjAAMCwGCWCGSAGG+EIBDQQfFh1PcGVu
U1NMIEdlbmVyYXRlZCBDZXJ0aWZpY2F0ZTAfBgNVHSMEGDAWgBSWRTUzibc+mBZl
82Vn52Y1Ejk/mDBvBggrBgEFBQcBAQRjMGEwPAYIKwYBBQUHMAKGMGh0dHA6Ly9s
b2NhbGhvc3Q6ODA4MC9kaXZlcnNlL3Jvb3RjYS9yb290LWNhLmNydDAhBggrBgEF
BQcwAYYVaHR0cDovLzEyNy4wLjAuMTo4ODg4MEkGA1UdHwRCMEAwPqA8oDqGOGh0
dHA6Ly9sb2NhbGhvc3Q6ODA4MC9kaXZlcnNlL3Jvb3RjYS9jcmwvY3JsbGlzdF9k
ZXIuY3JsMAsGA1UdDwQEAwIF4DAdBgNVHSUEFjAUBggrBgEFBQcDAgYIKwYBBQUH
AwEwHQYDVR0OBBYEFEvxGTQcsCpcU11GjiWX4CDy1j5QMA0GCSqGSIb3DQEBCwUA
A4IBAQB2oyzgm3JVZPKhnwuIguxcyotK2CqiBUmemLbnFdU4FkCt7GuRf2mXG3qA
+CqxjBzwLv4CCvMGYC006HgDkxb7tttSc8PwedOcgdOWQ/zMn6NIHRGdVtZnrpAX
PXm2sD0MYMIpZxRqE8InHSDxLfrZ8IXVOj4LWcSndExKnP4EuOLQMmF0mX1GSq/y
Uh/WX5s8qL3/2mXyFZADwKyoNaWG+Ay3QUFul2camUtksbK13S6A/EVxCBtHWJk5
NK2NqOj/knzPwd+ndQs1/6yL4w8/FhBQO6FwaWIoC+9QjUVenFofqFAmggOEC/1j
cTyHhPcZBpBWsYM7OAjYxapEXKDu
-----END CERTIFICATE-----
