Certificate:
    Data:
        Version: 3 (0x2)
        Serial Number:
            03:3d:01:90:72:82:5e:e3:39:7b:79:81:37:4e:16:d9
        Signature Algorithm: sha256WithRSAEncryption
        Issuer: C=RO, ST=Bucharest, O=ATM ORG, OU=ATM ROOT CA, CN=ATM COMMON NAME/emailAddress=atm_ca@pki.com
        Validity
            Not Before: Feb 17 21:56:15 2020 GMT
            Not After : Feb 16 21:56:15 2021 GMT
        Subject: C=RO, ST=Bucharest, O=ATM ORG, CN=SVA_BY_ATM_ROOT_CA
        Subject Public Key Info:
            Public Key Algorithm: rsaEncryption
                RSA Public-Key: (2048 bit)
                Modulus:
                    00:aa:e7:2f:3c:b8:1b:14:6b:7f:51:2c:f6:6d:0e:
                    8f:22:40:a1:bc:f4:d4:8d:e1:4d:71:75:17:62:9c:
                    74:2a:20:26:72:e7:23:99:13:e8:73:a7:cb:dd:5a:
                    7e:f4:75:0e:71:d0:07:6c:43:9b:17:2b:1d:b0:a1:
                    59:e7:83:3b:2e:79:37:ea:de:74:97:83:5a:27:a2:
                    1c:db:d6:e4:49:a4:26:7f:cf:b2:97:33:67:c2:13:
                    52:e8:8d:8c:3f:15:d9:77:b5:90:bd:6b:bf:46:f1:
                    35:67:85:01:e6:dd:29:76:ff:44:f1:42:68:64:1c:
                    cc:4a:bc:7e:fc:2c:da:92:15:16:65:6e:78:8f:4a:
                    fd:c9:c7:9b:49:0f:9b:4a:cd:b3:61:8f:c1:bc:55:
                    78:9f:aa:93:c4:c6:b0:25:9a:ae:e2:bf:8d:18:ac:
                    d1:23:20:bd:19:20:46:bf:da:03:dc:5b:3b:a3:71:
                    7c:3e:66:1f:a4:1c:1d:82:8d:0b:c1:99:12:a1:8c:
                    90:45:1c:ea:f1:c9:8f:6f:a7:22:60:17:c6:78:5c:
                    cf:4b:5d:10:85:1f:d6:ef:97:b3:a6:6b:fe:60:18:
                    de:a1:42:c5:88:80:b3:6a:84:53:9a:55:f1:7c:57:
                    71:fb:3b:20:b2:dd:97:66:ff:5b:28:45:21:b1:1d:
                    b2:61
                Exponent: 65537 (0x10001)
        X509v3 extensions:
            X509v3 Basic Constraints: 
                CA:FALSE
            Netscape Comment: 
                OpenSSL Generated Certificate
            X509v3 Authority Key Identifier: 
                keyid:96:45:35:33:89:B7:3E:98:16:65:F3:65:67:E7:66:35:12:39:3F:98

            Authority Information Access: 
                CA Issuers - URI:http://localhost:8080/diverse/rootca/root-ca.crt
                OCSP - URI:http://127.0.0.1:8888

            X509v3 CRL Distribution Points: 

                Full Name:
                  URI:http://localhost:8080/diverse/rootca/crl/crllist_der.crl

            X509v3 Key Usage: 
                Digital Signature, Non Repudiation, Key Encipherment
            X509v3 Extended Key Usage: 
                TLS Web Client Authentication, TLS Web Server Authentication
            X509v3 Subject Key Identifier: 
                6D:F9:B6:27:88:4F:4B:B3:E5:8E:47:39:F8:1C:45:C0:18:D8:5F:4F
    Signature Algorithm: sha256WithRSAEncryption
         00:d4:ea:c7:72:33:af:21:95:2a:86:da:c7:18:34:1c:87:04:
         03:11:61:f8:a7:9d:b4:dc:f3:87:90:eb:3f:bd:12:4f:c8:fb:
         b5:c0:ae:45:8f:f7:66:f3:c4:51:49:f7:69:56:a6:f8:c3:7c:
         d9:0d:27:33:5a:1e:43:92:ec:c7:19:35:20:bf:0a:94:6d:d2:
         d6:74:08:bf:b0:05:0a:2a:9d:cc:74:95:65:ca:5e:c1:c2:3c:
         c5:6f:22:75:64:bc:d9:e0:2c:f2:85:21:05:d1:be:61:70:24:
         6d:0f:0c:a0:ce:f9:3e:9a:4a:de:37:06:cc:37:a3:44:80:14:
         fe:c4:3c:17:71:7d:69:0c:07:4c:5f:c4:bf:58:df:5c:eb:48:
         e1:93:25:d2:73:18:f9:d2:94:8f:e4:dd:bc:3f:78:f5:72:51:
         61:8a:9c:e7:b9:d2:3e:bd:0b:9d:f0:55:8b:22:e1:06:4b:8f:
         32:d6:d5:be:ed:d4:7f:c2:1c:08:ba:82:7f:34:81:9a:4d:d7:
         87:dd:5d:ed:fc:41:cf:20:14:a1:e0:03:eb:ad:12:0a:c7:b0:
         a6:2b:e9:6d:77:26:c3:4b:ec:c1:90:de:15:25:47:d7:69:73:
         0c:8e:e5:3d:8f:d0:75:fd:de:7c:e0:9c:a9:cf:2f:b5:d0:b8:
         27:5a:0d:2d
-----BEGIN CERTIFICATE-----
MIIExDCCA6ygAwIBAgIQAz0BkHKCXuM5e3mBN04W2TANBgkqhkiG9w0BAQsFADCB
gjELMAkGA1UEBhMCUk8xEjAQBgNVBAgMCUJ1Y2hhcmVzdDEQMA4GA1UECgwHQVRN
IE9SRzEUMBIGA1UECwwLQVRNIFJPT1QgQ0ExGDAWBgNVBAMMD0FUTSBDT01NT04g
TkFNRTEdMBsGCSqGSIb3DQEJARYOYXRtX2NhQHBraS5jb20wHhcNMjAwMjE3MjE1
NjE1WhcNMjEwMjE2MjE1NjE1WjBQMQswCQYDVQQGEwJSTzESMBAGA1UECAwJQnVj
aGFyZXN0MRAwDgYDVQQKDAdBVE0gT1JHMRswGQYDVQQDDBJTVkFfQllfQVRNX1JP
T1RfQ0EwggEiMA0GCSqGSIb3DQEBAQUAA4IBDwAwggEKAoIBAQCq5y88uBsUa39R
LPZtDo8iQKG89NSN4U1xdRdinHQqICZy5yOZE+hzp8vdWn70dQ5x0AdsQ5sXKx2w
oVnngzsueTfq3nSXg1onohzb1uRJpCZ/z7KXM2fCE1LojYw/Fdl3tZC9a79G8TVn
hQHm3Sl2/0TxQmhkHMxKvH78LNqSFRZlbniPSv3Jx5tJD5tKzbNhj8G8VXifqpPE
xrAlmq7iv40YrNEjIL0ZIEa/2gPcWzujcXw+Zh+kHB2CjQvBmRKhjJBFHOrxyY9v
pyJgF8Z4XM9LXRCFH9bvl7Oma/5gGN6hQsWIgLNqhFOaVfF8V3H7OyCy3Zdm/1so
RSGxHbJhAgMBAAGjggFlMIIBYTAJBgNVHRMEAjAAMCwGCWCGSAGG+EIBDQQfFh1P
cGVuU1NMIEdlbmVyYXRlZCBDZXJ0aWZpY2F0ZTAfBgNVHSMEGDAWgBSWRTUzibc+
mBZl82Vn52Y1Ejk/mDBvBggrBgEFBQcBAQRjMGEwPAYIKwYBBQUHMAKGMGh0dHA6
Ly9sb2NhbGhvc3Q6ODA4MC9kaXZlcnNlL3Jvb3RjYS9yb290LWNhLmNydDAhBggr
BgEFBQcwAYYVaHR0cDovLzEyNy4wLjAuMTo4ODg4MEkGA1UdHwRCMEAwPqA8oDqG
OGh0dHA6Ly9sb2NhbGhvc3Q6ODA4MC9kaXZlcnNlL3Jvb3RjYS9jcmwvY3JsbGlz
dF9kZXIuY3JsMAsGA1UdDwQEAwIF4DAdBgNVHSUEFjAUBggrBgEFBQcDAgYIKwYB
BQUHAwEwHQYDVR0OBBYEFG35tieIT0uz5Y5HOfgcRcAY2F9PMA0GCSqGSIb3DQEB
CwUAA4IBAQAA1OrHcjOvIZUqhtrHGDQchwQDEWH4p5203POHkOs/vRJPyPu1wK5F
j/dm88RRSfdpVqb4w3zZDSczWh5DkuzHGTUgvwqUbdLWdAi/sAUKKp3MdJVlyl7B
wjzFbyJ1ZLzZ4CzyhSEF0b5hcCRtDwygzvk+mkreNwbMN6NEgBT+xDwXcX1pDAdM
X8S/WN9c60jhkyXScxj50pSP5N28P3j1clFhipznudI+vQud8FWLIuEGS48y1tW+
7dR/whwIuoJ/NIGaTdeH3V3t/EHPIBSh4APrrRIKx7CmK+ltdybDS+zBkN4VJUfX
aXMMjuU9j9B1/d584Jypzy+10LgnWg0t
-----END CERTIFICATE-----
