Certificate:
    Data:
        Version: 3 (0x2)
        Serial Number: 4099 (0x1003)
        Signature Algorithm: sha256WithRSAEncryption
        Issuer: C=RO, ST=Bucharest, O=ATM, OU=ATM ORG, CN=ATM COMMON NAME/emailAddress=atm@pki.com
        Validity
            Not Before: Feb  7 23:36:31 2020 GMT
            Not After : Feb  6 23:36:31 2021 GMT
        Subject: C=RO, ST=Bucharest, O=ATM, OU=ATM ORG, CN=x3/emailAddress=x3@pki.com
        Subject Public Key Info:
            Public Key Algorithm: rsaEncryption
                RSA Public-Key: (1024 bit)
                Modulus:
                    00:ed:00:a3:82:0c:22:02:95:95:4c:2e:33:bc:8f:
                    3f:3c:06:48:f8:fa:0a:13:2d:b6:52:a0:dd:94:7a:
                    d9:01:4c:91:49:f8:7c:72:6b:f1:dd:de:24:a3:f4:
                    2a:61:0b:fc:12:98:46:70:2a:6a:88:ec:81:9e:4a:
                    f1:c8:b1:fb:40:a3:89:60:d7:5d:43:62:60:64:8b:
                    87:fd:b8:22:e9:d1:01:f3:e3:30:ee:75:c2:94:6a:
                    cf:11:de:6e:02:cd:eb:61:b7:3e:d4:58:e3:f7:7f:
                    85:60:31:13:dc:ba:7e:a2:e3:c4:f7:c8:fc:e2:f8:
                    f2:4d:38:2d:1f:35:6e:d2:61
                Exponent: 65537 (0x10001)
        X509v3 extensions:
            X509v3 Basic Constraints: 
                CA:FALSE
            Netscape Comment: 
                OpenSSL Generated Certificate
            X509v3 Subject Key Identifier: 
                F6:92:3F:7D:58:9F:14:F8:02:4D:20:4C:86:18:B8:01:2B:EE:5D:6E
            X509v3 Authority Key Identifier: 
                DirName:/C=RO/ST=Bucharest/O=ATM/OU=ATM ORG/CN=ATM COMMON NAME/emailAddress=atm@pki.com
                serial:10:00

    Signature Algorithm: sha256WithRSAEncryption
         06:b0:52:dc:80:40:ce:81:43:f7:f8:d5:1a:1d:e5:e4:fc:fa:
         fa:cd:41:7e:a9:84:52:d1:15:55:19:6a:a4:86:0c:e4:e6:20:
         bc:42:52:a7:0c:45:ae:4b:71:17:5d:39:0b:3b:9b:b1:9c:36:
         a7:8a:61:75:7e:d0:32:cb:fc:5a:8f:3d:1b:c5:b2:f0:39:11:
         eb:64:b4:5e:1b:65:85:44:7e:24:ba:c1:ad:1a:b2:47:27:70:
         f6:e2:6c:5b:81:69:e4:1c:93:03:27:9b:ff:44:f6:32:26:97:
         52:e4:45:c2:11:9c:ca:8a:53:cf:16:f4:a0:47:0c:03:e3:90:
         c9:37:ad:09:43:31:bc:6e:2a:89:21:99:bb:2f:73:0b:f5:ea:
         00:3c:05:db:48:dd:3a:88:f2:c0:eb:f1:91:8c:f6:bd:52:88:
         48:bb:04:2d:b0:c4:cf:b4:20:93:d5:49:56:9e:b1:4c:8d:e3:
         f4:8c:77:0f:6e:8b:63:04:b8:a8:8a:41:d2:ba:8f:5e:23:2d:
         f1:02:d9:9e:5d:fe:4f:47:d4:61:eb:34:99:0f:ec:1d:af:c1:
         96:7d:c8:e2:8f:8d:f9:14:fa:9c:2d:a0:f3:7a:ba:70:b4:1a:
         11:00:71:1b:e1:04:79:b9:1e:54:f6:ee:80:bd:fe:d5:0d:1e:
         2c:90:69:e7
-----BEGIN CERTIFICATE-----
MIIDwzCCAqugAwIBAgICEAMwDQYJKoZIhvcNAQELBQAwdzELMAkGA1UEBhMCUk8x
EjAQBgNVBAgMCUJ1Y2hhcmVzdDEMMAoGA1UECgwDQVRNMRAwDgYDVQQLDAdBVE0g
T1JHMRgwFgYDVQQDDA9BVE0gQ09NTU9OIE5BTUUxGjAYBgkqhkiG9w0BCQEWC2F0
bUBwa2kuY29tMB4XDTIwMDIwNzIzMzYzMVoXDTIxMDIwNjIzMzYzMVowaTELMAkG
A1UEBhMCUk8xEjAQBgNVBAgMCUJ1Y2hhcmVzdDEMMAoGA1UECgwDQVRNMRAwDgYD
VQQLDAdBVE0gT1JHMQswCQYDVQQDDAJ4MzEZMBcGCSqGSIb3DQEJARYKeDNAcGtp
LmNvbTCBnzANBgkqhkiG9w0BAQEFAAOBjQAwgYkCgYEA7QCjggwiApWVTC4zvI8/
PAZI+PoKEy22UqDdlHrZAUyRSfh8cmvx3d4ko/QqYQv8EphGcCpqiOyBnkrxyLH7
QKOJYNddQ2JgZIuH/bgi6dEB8+Mw7nXClGrPEd5uAs3rYbc+1Fjj93+FYDET3Lp+
ouPE98j84vjyTTgtHzVu0mECAwEAAaOB6jCB5zAJBgNVHRMEAjAAMCwGCWCGSAGG
+EIBDQQfFh1PcGVuU1NMIEdlbmVyYXRlZCBDZXJ0aWZpY2F0ZTAdBgNVHQ4EFgQU
9pI/fVifFPgCTSBMhhi4ASvuXW4wgYwGA1UdIwSBhDCBgaF7pHkwdzELMAkGA1UE
BhMCUk8xEjAQBgNVBAgMCUJ1Y2hhcmVzdDEMMAoGA1UECgwDQVRNMRAwDgYDVQQL
DAdBVE0gT1JHMRgwFgYDVQQDDA9BVE0gQ09NTU9OIE5BTUUxGjAYBgkqhkiG9w0B
CQEWC2F0bUBwa2kuY29tggIQADANBgkqhkiG9w0BAQsFAAOCAQEABrBS3IBAzoFD
9/jVGh3l5Pz6+s1BfqmEUtEVVRlqpIYM5OYgvEJSpwxFrktxF105CzubsZw2p4ph
dX7QMsv8Wo89G8Wy8DkR62S0XhtlhUR+JLrBrRqyRydw9uJsW4Fp5ByTAyeb/0T2
MiaXUuRFwhGcyopTzxb0oEcMA+OQyTetCUMxvG4qiSGZuy9zC/XqADwF20jdOojy
wOvxkYz2vVKISLsELbDEz7Qgk9VJVp6xTI3j9Ix3D26LYwS4qIpB0rqPXiMt8QLZ
nl3+T0fUYes0mQ/sHa/Bln3I4o+N+RT6nC2g83q6cLQaEQBxG+EEebkeVPbugL3+
1Q0eLJBp5w==
-----END CERTIFICATE-----
