Certificate:
    Data:
        Version: 3 (0x2)
        Serial Number:
            03:3d:01:90:72:82:5e:e3:39:7b:79:81:37:4e:16:ca
        Signature Algorithm: sha256WithRSAEncryption
        Issuer: C=RO, ST=Bucharest, O=ATM ORG, OU=ATM ROOT CA, CN=ATM COMMON NAME/emailAddress=atm_ca@pki.com
        Validity
            Not Before: Feb  8 20:42:09 2020 GMT
            Not After : Feb  7 20:42:09 2021 GMT
        Subject: C=RO, ST=Bucharest, O=ATM ORG, OU=ATM ROOT CA, CN=ocsp/emailAddress=ocsp@pki.com
        Subject Public Key Info:
            Public Key Algorithm: rsaEncryption
                RSA Public-Key: (1024 bit)
                Modulus:
                    00:d1:c0:bf:5b:9f:89:80:97:fb:f2:88:97:b1:56:
                    e8:f1:8f:52:72:78:aa:f1:2d:95:9e:b4:7c:28:48:
                    fd:76:18:b0:c8:b6:3f:86:3b:e5:bc:e9:e4:41:15:
                    c3:45:e7:85:ce:f0:27:87:ad:f6:63:2d:a1:bc:a6:
                    4d:01:d7:57:b5:a2:21:c3:58:71:b7:60:77:09:37:
                    aa:3f:a9:8e:db:10:f0:ca:0f:d1:67:5b:57:64:68:
                    2a:29:9f:60:58:c1:17:a3:41:9e:7a:a2:7c:b0:ae:
                    b7:b4:66:49:b2:97:79:5b:b3:a7:d7:76:3e:e4:35:
                    33:ec:50:a0:9d:41:c2:32:93
                Exponent: 65537 (0x10001)
        X509v3 extensions:
            X509v3 Basic Constraints: 
                CA:FALSE
            Netscape Comment: 
                OpenSSL Generated Certificate
            X509v3 Authority Key Identifier: 
                keyid:96:45:35:33:89:B7:3E:98:16:65:F3:65:67:E7:66:35:12:39:3F:98

            Authority Information Access: 
                CA Issuers - URI:http://localhost:8080/diverse/rootca/root-ca.crt
                OCSP - URI:http://127.0.0.1:8888

            X509v3 CRL Distribution Points: 

                Full Name:
                  URI:http://localhost:8080/diverse/rootca/crl/crllist_der.crl

            X509v3 Key Usage: 
                Digital Signature, Non Repudiation, Key Encipherment, Data Encipherment, Key Agreement
            X509v3 Extended Key Usage: 
                TLS Web Client Authentication, TLS Web Server Authentication
            X509v3 Subject Key Identifier: 
                4F:B3:AA:F4:A0:AA:BA:32:E4:5F:31:87:C8:AF:FF:55:B1:5C:83:60
    Signature Algorithm: sha256WithRSAEncryption
         7f:87:8f:d6:e8:70:4e:01:45:cc:19:42:4c:2e:40:32:d5:68:
         6f:62:9f:0d:25:47:10:7d:cc:a2:73:08:55:98:c1:75:c5:d0:
         c9:d4:15:0a:8b:84:35:00:97:70:64:96:cf:22:dd:e1:59:5c:
         c3:35:b0:92:bb:a4:1d:61:fb:80:a0:64:4b:13:c0:90:f0:2c:
         a2:6e:ee:57:c7:0b:3d:96:b0:7d:72:95:ab:c6:1b:98:3a:8f:
         2c:fc:c5:1f:c5:35:d7:b9:48:66:37:5c:b8:1f:31:f8:05:2f:
         2b:5d:b9:2b:93:f8:3a:d3:01:33:63:64:76:6e:cc:9b:ab:97:
         ff:f9:ec:fd:b3:7f:05:79:00:f2:2b:f0:7a:f2:c5:c5:c7:8c:
         25:40:21:2d:ed:87:ee:49:b0:da:a3:ba:26:84:79:77:99:9f:
         ce:37:e3:52:8b:67:17:64:a9:b1:fd:17:63:47:0c:2d:94:31:
         04:ee:e0:a5:60:da:f3:c9:c4:51:9c:f3:ba:b8:4e:a9:b5:f2:
         95:36:0f:95:1e:83:bb:de:9c:f7:d4:dc:31:fc:1a:e7:d7:fc:
         43:da:3d:c3:95:d9:f5:a1:66:d7:0b:1b:32:a3:26:4a:9c:a4:
         af:e2:c0:a5:35:b0:27:ed:59:6a:ed:17:b5:3e:be:a2:83:3c:
         8b:78:70:fa
-----BEGIN CERTIFICATE-----
MIIEZTCCA02gAwIBAgIQAz0BkHKCXuM5e3mBN04WyjANBgkqhkiG9w0BAQsFADCB
gjELMAkGA1UEBhMCUk8xEjAQBgNVBAgMCUJ1Y2hhcmVzdDEQMA4GA1UECgwHQVRN
IE9SRzEUMBIGA1UECwwLQVRNIFJPT1QgQ0ExGDAWBgNVBAMMD0FUTSBDT01NT04g
TkFNRTEdMBsGCSqGSIb3DQEJARYOYXRtX2NhQHBraS5jb20wHhcNMjAwMjA4MjA0
MjA5WhcNMjEwMjA3MjA0MjA5WjB1MQswCQYDVQQGEwJSTzESMBAGA1UECAwJQnVj
aGFyZXN0MRAwDgYDVQQKDAdBVE0gT1JHMRQwEgYDVQQLDAtBVE0gUk9PVCBDQTEN
MAsGA1UEAwwEb2NzcDEbMBkGCSqGSIb3DQEJARYMb2NzcEBwa2kuY29tMIGfMA0G
CSqGSIb3DQEBAQUAA4GNADCBiQKBgQDRwL9bn4mAl/vyiJexVujxj1JyeKrxLZWe
tHwoSP12GLDItj+GO+W86eRBFcNF54XO8CeHrfZjLaG8pk0B11e1oiHDWHG3YHcJ
N6o/qY7bEPDKD9FnW1dkaCopn2BYwRejQZ56onywrre0Zkmyl3lbs6fXdj7kNTPs
UKCdQcIykwIDAQABo4IBZTCCAWEwCQYDVR0TBAIwADAsBglghkgBhvhCAQ0EHxYd
T3BlblNTTCBHZW5lcmF0ZWQgQ2VydGlmaWNhdGUwHwYDVR0jBBgwFoAUlkU1M4m3
PpgWZfNlZ+dmNRI5P5gwbwYIKwYBBQUHAQEEYzBhMDwGCCsGAQUFBzAChjBodHRw
Oi8vbG9jYWxob3N0OjgwODAvZGl2ZXJzZS9yb290Y2Evcm9vdC1jYS5jcnQwIQYI
KwYBBQUHMAGGFWh0dHA6Ly8xMjcuMC4wLjE6ODg4ODBJBgNVHR8EQjBAMD6gPKA6
hjhodHRwOi8vbG9jYWxob3N0OjgwODAvZGl2ZXJzZS9yb290Y2EvY3JsL2NybGxp
c3RfZGVyLmNybDALBgNVHQ8EBAMCA/gwHQYDVR0lBBYwFAYIKwYBBQUHAwIGCCsG
AQUFBwMBMB0GA1UdDgQWBBRPs6r0oKq6MuRfMYfIr/9VsVyDYDANBgkqhkiG9w0B
AQsFAAOCAQEAf4eP1uhwTgFFzBlCTC5AMtVob2KfDSVHEH3MonMIVZjBdcXQydQV
CouENQCXcGSWzyLd4VlcwzWwkrukHWH7gKBkSxPAkPAsom7uV8cLPZawfXKVq8Yb
mDqPLPzFH8U117lIZjdcuB8x+AUvK125K5P4OtMBM2Nkdm7Mm6uX//ns/bN/BXkA
8ivwevLFxceMJUAhLe2H7kmw2qO6JoR5d5mfzjfjUotnF2Spsf0XY0cMLZQxBO7g
pWDa88nEUZzzurhOqbXylTYPlR6Du96c99TcMfwa59f8Q9o9w5XZ9aFm1wsbMqMm
Spykr+LApTWwJ+1Zau0XtT6+ooM8i3hw+g==
-----END CERTIFICATE-----
