Certificate:
    Data:
        Version: 3 (0x2)
        Serial Number:
            03:3d:01:90:72:82:5e:e3:39:7b:79:81:37:4e:16:d8
        Signature Algorithm: sha256WithRSAEncryption
        Issuer: C=RO, ST=Bucharest, O=ATM ORG, OU=ATM ROOT CA, CN=ATM COMMON NAME/emailAddress=atm_ca@pki.com
        Validity
            Not Before: Feb 17 13:39:54 2020 GMT
            Not After : Feb 16 13:39:54 2021 GMT
        Subject: C=RO, ST=Bucharest, O=ATM ORG, OU=ATM ROOT CA, CN=ocsp3/emailAddress=ocsp3@pki.com
        Subject Public Key Info:
            Public Key Algorithm: rsaEncryption
                RSA Public-Key: (2048 bit)
                Modulus:
                    00:ed:7a:e4:2c:8f:bf:72:75:3d:b3:8f:ec:b1:6e:
                    7d:13:6c:05:78:c3:84:07:35:0b:fd:84:69:79:ea:
                    51:a0:61:78:48:3b:7d:02:96:23:d7:e2:b8:54:2d:
                    ca:db:17:f7:19:b8:ee:2d:e8:b3:61:ac:99:05:2a:
                    bd:4b:52:e9:0c:4b:34:c9:b1:28:5a:ad:92:c4:92:
                    03:ab:89:67:41:ee:94:c0:af:d1:36:60:24:3c:0d:
                    98:a1:23:e1:19:ec:fb:c7:0d:d1:53:21:b3:6d:84:
                    03:4e:2e:a8:4d:ff:20:ad:ca:c1:fe:d6:7e:92:76:
                    52:ef:ba:49:ab:1a:d8:99:d3:e7:df:03:42:72:1e:
                    5e:a2:c7:e3:5c:98:4e:40:6f:f0:48:61:e4:48:ec:
                    ec:de:7c:c2:9e:01:84:a4:dd:46:c9:21:06:e3:6e:
                    a6:f8:29:04:ae:3c:ba:af:a4:bf:be:2e:85:39:81:
                    89:5f:06:fc:5a:54:2e:18:02:d0:7e:53:57:82:f6:
                    a2:72:15:a2:11:ce:97:36:9c:aa:be:6c:c3:22:d5:
                    30:23:f7:be:0b:d8:5b:96:5d:f5:f8:64:73:c0:3d:
                    9b:4c:89:e2:06:28:12:8c:c7:b1:b7:57:70:36:12:
                    8c:9a:b9:5c:fc:32:0f:eb:cd:89:51:8c:8c:c8:04:
                    ad:b9
                Exponent: 65537 (0x10001)
        X509v3 extensions:
            X509v3 Basic Constraints: 
                CA:FALSE
            X509v3 Key Usage: 
                Digital Signature, Non Repudiation, Key Encipherment
            X509v3 Extended Key Usage: 
                OCSP Signing
            Authority Information Access: 
                CA Issuers - URI:http://localhost:8080/diverse/rootca/root-ca.crt
                OCSP - URI:http://127.0.0.1:8888

            X509v3 CRL Distribution Points: 

                Full Name:
                  URI:http://localhost:8080/diverse/rootca/crl/crllist_der.crl

    Signature Algorithm: sha256WithRSAEncryption
         83:c1:85:87:a7:ed:b1:e2:4d:ba:fb:cd:b1:a4:09:a5:bb:c8:
         5b:e9:65:c5:04:b0:b7:28:18:a0:d0:86:ba:a8:31:71:fe:ea:
         20:d2:0c:11:3e:4d:70:5a:bf:da:2f:ea:e4:92:dc:e6:3b:79:
         78:10:8a:e8:4c:1a:50:ed:d3:b2:9c:6b:b6:cf:c6:ad:4d:ff:
         fa:92:ea:ac:be:36:e2:2f:f2:d1:df:cd:54:c1:67:44:f2:a0:
         0c:46:95:3e:89:91:47:ad:27:93:c0:f7:40:d0:99:3c:af:8b:
         da:80:c6:fd:f5:20:8a:5d:02:17:b9:64:d8:c6:a8:e8:cf:b7:
         77:6e:90:3e:bf:78:4c:3e:7f:51:41:e5:96:6a:19:52:69:dc:
         c7:a9:ee:d8:46:79:70:2e:e6:db:c5:74:c7:8d:94:8f:f1:7d:
         f7:eb:61:e9:40:dd:7b:ef:da:de:3c:b0:5b:5f:04:29:ea:37:
         33:bd:e4:91:6a:13:58:45:ad:e3:c0:f3:3a:1c:29:09:03:40:
         fd:34:3f:6b:f7:7f:12:d8:df:47:6d:25:e9:be:5d:78:f8:82:
         9a:c5:27:3d:29:80:db:1e:87:0b:bf:74:8a:31:13:4c:78:fb:
         2b:84:43:aa:17:28:21:7e:fc:06:fa:35:20:49:81:c5:1d:24:
         c5:94:71:72
-----BEGIN CERTIFICATE-----
MIIEcTCCA1mgAwIBAgIQAz0BkHKCXuM5e3mBN04W2DANBgkqhkiG9w0BAQsFADCB
gjELMAkGA1UEBhMCUk8xEjAQBgNVBAgMCUJ1Y2hhcmVzdDEQMA4GA1UECgwHQVRN
IE9SRzEUMBIGA1UECwwLQVRNIFJPT1QgQ0ExGDAWBgNVBAMMD0FUTSBDT01NT04g
TkFNRTEdMBsGCSqGSIb3DQEJARYOYXRtX2NhQHBraS5jb20wHhcNMjAwMjE3MTMz
OTU0WhcNMjEwMjE2MTMzOTU0WjB3MQswCQYDVQQGEwJSTzESMBAGA1UECAwJQnVj
aGFyZXN0MRAwDgYDVQQKDAdBVE0gT1JHMRQwEgYDVQQLDAtBVE0gUk9PVCBDQTEO
MAwGA1UEAwwFb2NzcDMxHDAaBgkqhkiG9w0BCQEWDW9jc3AzQHBraS5jb20wggEi
MA0GCSqGSIb3DQEBAQUAA4IBDwAwggEKAoIBAQDteuQsj79ydT2zj+yxbn0TbAV4
w4QHNQv9hGl56lGgYXhIO30CliPX4rhULcrbF/cZuO4t6LNhrJkFKr1LUukMSzTJ
sSharZLEkgOriWdB7pTAr9E2YCQ8DZihI+EZ7PvHDdFTIbNthANOLqhN/yCtysH+
1n6SdlLvukmrGtiZ0+ffA0JyHl6ix+NcmE5Ab/BIYeRI7OzefMKeAYSk3UbJIQbj
bqb4KQSuPLqvpL++LoU5gYlfBvxaVC4YAtB+U1eC9qJyFaIRzpc2nKq+bMMi1TAj
974L2FuWXfX4ZHPAPZtMieIGKBKMx7G3V3A2EoyauVz8Mg/rzYlRjIzIBK25AgMB
AAGjgewwgekwCQYDVR0TBAIwADALBgNVHQ8EBAMCBeAwEwYDVR0lBAwwCgYIKwYB
BQUHAwkwbwYIKwYBBQUHAQEEYzBhMDwGCCsGAQUFBzAChjBodHRwOi8vbG9jYWxo
b3N0OjgwODAvZGl2ZXJzZS9yb290Y2Evcm9vdC1jYS5jcnQwIQYIKwYBBQUHMAGG
FWh0dHA6Ly8xMjcuMC4wLjE6ODg4ODBJBgNVHR8EQjBAMD6gPKA6hjhodHRwOi8v
bG9jYWxob3N0OjgwODAvZGl2ZXJzZS9yb290Y2EvY3JsL2NybGxpc3RfZGVyLmNy
bDANBgkqhkiG9w0BAQsFAAOCAQEAg8GFh6ftseJNuvvNsaQJpbvIW+llxQSwtygY
oNCGuqgxcf7qINIMET5NcFq/2i/q5JLc5jt5eBCK6EwaUO3Tspxrts/GrU3/+pLq
rL424i/y0d/NVMFnRPKgDEaVPomRR60nk8D3QNCZPK+L2oDG/fUgil0CF7lk2Mao
6M+3d26QPr94TD5/UUHllmoZUmncx6nu2EZ5cC7m28V0x42Uj/F99+th6UDde+/a
3jywW18EKeo3M73kkWoTWEWt48DzOhwpCQNA/TQ/a/d/EtjfR20l6b5dePiCmsUn
PSmA2x6HC790ijETTHj7K4RDqhcoIX78Bvo1IEmBxR0kxZRxcg==
-----END CERTIFICATE-----
