Certificate:
    Data:
        Version: 3 (0x2)
        Serial Number:
            03:3d:01:90:72:82:5e:e3:39:7b:79:81:37:4e:16:db
        Signature Algorithm: sha256WithRSAEncryption
        Issuer: C=RO, ST=Bucharest, O=ATM ORG, OU=ATM ROOT CA, CN=ATM COMMON NAME/emailAddress=atm_ca@pki.com
        Validity
            Not Before: Feb 18 00:19:20 2020 GMT
            Not After : Feb 17 00:19:20 2021 GMT
        Subject: C=RO, ST=Bucharest, O=ATM ORG, CN=SVA_BY_ATM_ROOT_CA
        Subject Public Key Info:
            Public Key Algorithm: rsaEncryption
                RSA Public-Key: (2048 bit)
                Modulus:
                    00:c4:c2:7e:47:2e:c5:f6:a5:af:28:f4:3a:34:24:
                    1a:ae:7d:67:a9:2b:85:30:6c:66:32:33:3d:e4:2a:
                    b9:39:58:dd:a0:cf:36:ae:54:98:03:da:4c:71:39:
                    07:f3:60:27:56:b3:78:22:9b:fe:18:ed:18:73:6e:
                    d1:c3:d9:3a:ed:d6:e6:6f:09:30:db:cc:22:7c:13:
                    81:38:1d:38:26:64:0f:ce:25:ae:74:cf:41:d8:f7:
                    1a:11:b7:64:52:09:97:6f:ed:d5:3b:47:b0:9e:f7:
                    75:74:ee:cd:fb:aa:19:01:fe:30:f7:84:f5:ec:14:
                    6e:b1:fb:3c:3c:d2:2f:bf:dc:cb:bc:6d:2f:a0:21:
                    0e:97:c1:32:cb:60:43:79:ba:f1:b9:ac:f8:df:1c:
                    6f:bc:14:e4:43:0a:f2:fb:6c:ff:e9:5c:dc:e5:4a:
                    e9:79:dc:84:0e:ff:d7:aa:9e:55:86:3e:34:d6:bb:
                    19:16:71:77:fc:72:ea:b7:75:a4:0d:ac:06:cf:32:
                    11:32:4e:ef:55:87:05:fe:af:35:e2:f2:ce:84:95:
                    b7:2a:de:d6:46:d1:e6:c9:f6:94:91:3b:06:40:c1:
                    dd:d8:ac:41:79:93:e5:7e:57:66:44:80:3e:5b:80:
                    7b:cd:da:f5:d3:6d:9a:07:98:6f:90:53:28:3a:43:
                    df:bf
                Exponent: 65537 (0x10001)
        X509v3 extensions:
            X509v3 Basic Constraints: 
                CA:FALSE
            Netscape Comment: 
                OpenSSL Generated Certificate
            X509v3 Authority Key Identifier: 
                keyid:96:45:35:33:89:B7:3E:98:16:65:F3:65:67:E7:66:35:12:39:3F:98

            Authority Information Access: 
                CA Issuers - URI:http://localhost:8080/diverse/rootca/root-ca.crt
                OCSP - URI:http://127.0.0.1:8888

            X509v3 CRL Distribution Points: 

                Full Name:
                  URI:http://localhost:8080/diverse/rootca/crl/crllist_der.crl

            X509v3 Key Usage: 
                Digital Signature, Non Repudiation, Key Encipherment
            X509v3 Extended Key Usage: 
                TLS Web Client Authentication, TLS Web Server Authentication
            X509v3 Subject Key Identifier: 
                07:1A:F0:D8:63:7D:95:C0:CF:A9:B3:51:77:8F:C3:4D:A3:4B:5F:16
    Signature Algorithm: sha256WithRSAEncryption
         07:11:14:a2:b7:52:89:3e:10:a1:57:fe:9c:2f:89:14:a7:cc:
         d9:e8:1a:8b:8c:f5:ef:f4:60:7f:d2:fd:90:33:21:39:d7:55:
         28:78:0c:4b:e3:30:8d:87:f6:c4:a7:31:e3:2c:88:34:52:03:
         82:97:4c:63:14:31:60:39:5f:7c:e2:e9:fa:ae:72:cc:9c:00:
         1f:f3:44:ea:90:cb:88:bf:d4:67:77:44:40:71:72:b1:c1:73:
         ce:d8:90:9e:df:16:5e:8f:ad:65:1c:b7:14:30:18:01:0c:3c:
         42:cd:89:35:31:32:2b:64:17:18:bc:18:bf:60:35:b5:7e:1d:
         bd:6a:d7:ee:73:9a:57:d9:02:0e:b2:50:74:f3:19:cf:d3:15:
         fe:1e:12:17:20:cf:71:ed:f8:87:66:78:92:98:11:7b:e2:31:
         ee:9f:0e:96:9e:de:af:f8:cf:cf:c3:58:25:02:60:12:6f:4d:
         dc:50:76:ea:ea:4b:b3:07:bb:97:3d:26:e9:de:72:fd:0e:4a:
         4b:37:ba:f9:85:c0:64:63:0f:02:87:81:2e:bb:69:7d:d6:25:
         e9:90:05:0c:03:7d:3b:f3:89:db:a4:72:64:c7:05:ed:65:38:
         ee:54:c4:0a:2f:63:dd:54:81:9e:5d:4a:9f:b9:50:b9:4f:16:
         ec:ad:b4:e6
-----BEGIN CERTIFICATE-----
MIIExDCCA6ygAwIBAgIQAz0BkHKCXuM5e3mBN04W2zANBgkqhkiG9w0BAQsFADCB
gjELMAkGA1UEBhMCUk8xEjAQBgNVBAgMCUJ1Y2hhcmVzdDEQMA4GA1UECgwHQVRN
IE9SRzEUMBIGA1UECwwLQVRNIFJPT1QgQ0ExGDAWBgNVBAMMD0FUTSBDT01NT04g
TkFNRTEdMBsGCSqGSIb3DQEJARYOYXRtX2NhQHBraS5jb20wHhcNMjAwMjE4MDAx
OTIwWhcNMjEwMjE3MDAxOTIwWjBQMQswCQYDVQQGEwJSTzESMBAGA1UECAwJQnVj
aGFyZXN0MRAwDgYDVQQKDAdBVE0gT1JHMRswGQYDVQQDDBJTVkFfQllfQVRNX1JP
T1RfQ0EwggEiMA0GCSqGSIb3DQEBAQUAA4IBDwAwggEKAoIBAQDEwn5HLsX2pa8o
9Do0JBqufWepK4UwbGYyMz3kKrk5WN2gzzauVJgD2kxxOQfzYCdWs3gim/4Y7Rhz
btHD2Trt1uZvCTDbzCJ8E4E4HTgmZA/OJa50z0HY9xoRt2RSCZdv7dU7R7Ce93V0
7s37qhkB/jD3hPXsFG6x+zw80i+/3Mu8bS+gIQ6XwTLLYEN5uvG5rPjfHG+8FORD
CvL7bP/pXNzlSul53IQO/9eqnlWGPjTWuxkWcXf8cuq3daQNrAbPMhEyTu9VhwX+
rzXi8s6Elbcq3tZG0ebJ9pSROwZAwd3YrEF5k+V+V2ZEgD5bgHvN2vXTbZoHmG+Q
Uyg6Q9+/AgMBAAGjggFlMIIBYTAJBgNVHRMEAjAAMCwGCWCGSAGG+EIBDQQfFh1P
cGVuU1NMIEdlbmVyYXRlZCBDZXJ0aWZpY2F0ZTAfBgNVHSMEGDAWgBSWRTUzibc+
mBZl82Vn52Y1Ejk/mDBvBggrBgEFBQcBAQRjMGEwPAYIKwYBBQUHMAKGMGh0dHA6
Ly9sb2NhbGhvc3Q6ODA4MC9kaXZlcnNlL3Jvb3RjYS9yb290LWNhLmNydDAhBggr
BgEFBQcwAYYVaHR0cDovLzEyNy4wLjAuMTo4ODg4MEkGA1UdHwRCMEAwPqA8oDqG
OGh0dHA6Ly9sb2NhbGhvc3Q6ODA4MC9kaXZlcnNlL3Jvb3RjYS9jcmwvY3JsbGlz
dF9kZXIuY3JsMAsGA1UdDwQEAwIF4DAdBgNVHSUEFjAUBggrBgEFBQcDAgYIKwYB
BQUHAwEwHQYDVR0OBBYEFAca8NhjfZXAz6mzUXePw02jS18WMA0GCSqGSIb3DQEB
CwUAA4IBAQAHERSit1KJPhChV/6cL4kUp8zZ6BqLjPXv9GB/0v2QMyE511UoeAxL
4zCNh/bEpzHjLIg0UgOCl0xjFDFgOV984un6rnLMnAAf80TqkMuIv9Rnd0RAcXKx
wXPO2JCe3xZej61lHLcUMBgBDDxCzYk1MTIrZBcYvBi/YDW1fh29atfuc5pX2QIO
slB08xnP0xX+HhIXIM9x7fiHZniSmBF74jHunw6Wnt6v+M/Pw1glAmASb03cUHbq
6kuzB7uXPSbp3nL9DkpLN7r5hcBkYw8Ch4Euu2l91iXpkAUMA30784nbpHJkxwXt
ZTjuVMQKL2PdVIGeXUqfuVC5TxbsrbTm
-----END CERTIFICATE-----
