Certificate:
    Data:
        Version: 3 (0x2)
        Serial Number:
            03:3d:01:90:72:82:5e:e3:39:7b:79:81:37:4e:16:c5
        Signature Algorithm: sha256WithRSAEncryption
        Issuer: C=RO, ST=Bucharest, O=ATM ORG, OU=ATM ROOT CA, CN=ATM COMMON NAME/emailAddress=atm_ca@pki.com
        Validity
            Not Before: Feb  8 17:59:08 2020 GMT
            Not After : Feb  7 17:59:08 2021 GMT
        Subject: C=RO, ST=Bucharest, O=ATM ORG, OU=ATM ROOT CA, CN=x2/emailAddress=x2@pki.com
        Subject Public Key Info:
            Public Key Algorithm: rsaEncryption
                RSA Public-Key: (1024 bit)
                Modulus:
                    00:dc:4e:9e:4a:75:5b:fa:51:f2:5a:db:25:5f:d2:
                    3e:6d:29:49:54:e4:cb:c5:25:3e:9e:fc:7c:c8:b6:
                    39:f9:a0:0e:9f:cc:e4:8e:45:e7:b7:3a:a4:14:21:
                    ed:48:3a:6d:b6:a6:96:52:aa:eb:7d:4a:85:22:85:
                    c3:c5:2b:ab:53:7b:18:b9:73:0e:24:64:3f:47:b4:
                    ba:1d:d0:06:81:85:54:ea:57:17:4a:ec:c8:f2:c1:
                    15:1a:25:57:a7:74:98:c3:a8:c9:8a:4f:ed:71:e0:
                    fd:58:4a:23:a3:80:80:36:96:1f:63:f1:66:f1:52:
                    0b:04:3b:53:1e:b3:96:f5:83
                Exponent: 65537 (0x10001)
        X509v3 extensions:
            X509v3 Basic Constraints: 
                CA:FALSE
            Netscape Comment: 
                OpenSSL Generated Certificate
            X509v3 Authority Key Identifier: 
                keyid:96:45:35:33:89:B7:3E:98:16:65:F3:65:67:E7:66:35:12:39:3F:98

            Authority Information Access: 
                CA Issuers - URI:http://localhost:8080/diverse/rootca/root-ca.crt
                OCSP - URI:http://ocsp.root-ca.example.com:9080

            X509v3 CRL Distribution Points: 

                Full Name:
                  URI:http://localhost:8080/diverse/rootca/crl/crllist_der.crl

            X509v3 Key Usage: 
                Digital Signature, Non Repudiation, Key Encipherment, Data Encipherment, Key Agreement
            X509v3 Extended Key Usage: 
                TLS Web Client Authentication, TLS Web Server Authentication
            X509v3 Subject Key Identifier: 
                0C:CC:33:DD:EC:7D:3D:C4:CA:DE:80:CA:7E:1A:DA:12:52:01:3F:8E
    Signature Algorithm: sha256WithRSAEncryption
         a3:85:6a:17:e4:48:f9:66:1d:4a:97:5e:c4:0e:fb:07:83:a5:
         ae:58:bf:3c:54:48:52:5a:f5:b7:35:04:f3:97:e0:e9:9e:81:
         d3:9f:75:fd:5f:c9:32:8c:05:9d:87:62:5e:b8:68:30:60:25:
         63:a6:3b:eb:81:52:3b:9a:d2:51:53:ac:e3:cd:ca:c3:84:c7:
         26:5f:52:9b:14:e1:cb:f6:82:25:d7:1b:ba:6e:5f:39:6c:77:
         76:78:a5:cc:bf:c1:83:4a:1e:98:db:23:27:c2:5f:7f:5b:d1:
         36:0e:e1:e5:f9:32:18:5a:ae:bc:b6:e4:14:e5:49:d3:b9:7d:
         7a:d1:7e:16:06:8f:e2:2e:7f:fd:5f:80:88:53:cf:de:09:bb:
         14:42:7b:24:eb:dc:3f:0f:d9:79:4e:b6:e7:6a:7b:0c:08:07:
         7c:6e:80:13:62:60:28:3b:5f:1d:05:c1:07:40:1d:da:6d:bc:
         fc:d5:6f:16:cb:a3:0a:00:75:d4:de:fe:0a:b9:4a:c3:3f:5a:
         77:30:df:bf:45:4d:75:69:b4:80:57:f6:4e:4d:db:0e:0e:9e:
         4b:d4:fe:14:cf:72:73:a4:eb:18:b4:5e:02:54:02:83:cf:df:
         21:37:d7:de:90:ab:a5:ea:28:43:d9:da:2c:0e:c7:32:ff:dd:
         7b:ce:fc:7a
-----BEGIN CERTIFICATE-----
MIIEcDCCA1igAwIBAgIQAz0BkHKCXuM5e3mBN04WxTANBgkqhkiG9w0BAQsFADCB
gjELMAkGA1UEBhMCUk8xEjAQBgNVBAgMCUJ1Y2hhcmVzdDEQMA4GA1UECgwHQVRN
IE9SRzEUMBIGA1UECwwLQVRNIFJPT1QgQ0ExGDAWBgNVBAMMD0FUTSBDT01NT04g
TkFNRTEdMBsGCSqGSIb3DQEJARYOYXRtX2NhQHBraS5jb20wHhcNMjAwMjA4MTc1
OTA4WhcNMjEwMjA3MTc1OTA4WjBxMQswCQYDVQQGEwJSTzESMBAGA1UECAwJQnVj
aGFyZXN0MRAwDgYDVQQKDAdBVE0gT1JHMRQwEgYDVQQLDAtBVE0gUk9PVCBDQTEL
MAkGA1UEAwwCeDIxGTAXBgkqhkiG9w0BCQEWCngyQHBraS5jb20wgZ8wDQYJKoZI
hvcNAQEBBQADgY0AMIGJAoGBANxOnkp1W/pR8lrbJV/SPm0pSVTky8UlPp78fMi2
OfmgDp/M5I5F57c6pBQh7Ug6bbamllKq631KhSKFw8Urq1N7GLlzDiRkP0e0uh3Q
BoGFVOpXF0rsyPLBFRolV6d0mMOoyYpP7XHg/VhKI6OAgDaWH2PxZvFSCwQ7Ux6z
lvWDAgMBAAGjggF0MIIBcDAJBgNVHRMEAjAAMCwGCWCGSAGG+EIBDQQfFh1PcGVu
U1NMIEdlbmVyYXRlZCBDZXJ0aWZpY2F0ZTAfBgNVHSMEGDAWgBSWRTUzibc+mBZl
82Vn52Y1Ejk/mDB+BggrBgEFBQcBAQRyMHAwPAYIKwYBBQUHMAKGMGh0dHA6Ly9s
b2NhbGhvc3Q6ODA4MC9kaXZlcnNlL3Jvb3RjYS9yb290LWNhLmNydDAwBggrBgEF
BQcwAYYkaHR0cDovL29jc3Aucm9vdC1jYS5leGFtcGxlLmNvbTo5MDgwMEkGA1Ud
HwRCMEAwPqA8oDqGOGh0dHA6Ly9sb2NhbGhvc3Q6ODA4MC9kaXZlcnNlL3Jvb3Rj
YS9jcmwvY3JsbGlzdF9kZXIuY3JsMAsGA1UdDwQEAwID+DAdBgNVHSUEFjAUBggr
BgEFBQcDAgYIKwYBBQUHAwEwHQYDVR0OBBYEFAzMM93sfT3Eyt6Ayn4a2hJSAT+O
MA0GCSqGSIb3DQEBCwUAA4IBAQCjhWoX5Ej5Zh1Kl17EDvsHg6WuWL88VEhSWvW3
NQTzl+DpnoHTn3X9X8kyjAWdh2JeuGgwYCVjpjvrgVI7mtJRU6zjzcrDhMcmX1Kb
FOHL9oIl1xu6bl85bHd2eKXMv8GDSh6Y2yMnwl9/W9E2DuHl+TIYWq68tuQU5UnT
uX160X4WBo/iLn/9X4CIU8/eCbsUQnsk69w/D9l5TrbnansMCAd8boATYmAoO18d
BcEHQB3abbz81W8Wy6MKAHXU3v4KuUrDP1p3MN+/RU11abSAV/ZOTdsODp5L1P4U
z3JzpOsYtF4CVAKDz98hN9fekKul6ihD2dosDscy/917zvx6
-----END CERTIFICATE-----
