Certificate:
    Data:
        Version: 3 (0x2)
        Serial Number:
            03:3d:01:90:72:82:5e:e3:39:7b:79:81:37:4e:16:c9
        Signature Algorithm: sha256WithRSAEncryption
        Issuer: C=RO, ST=Bucharest, O=ATM ORG, OU=ATM ROOT CA, CN=ATM COMMON NAME/emailAddress=atm_ca@pki.com
        Validity
            Not Before: Feb  8 20:40:47 2020 GMT
            Not After : Feb  7 20:40:47 2021 GMT
        Subject: C=RO, ST=Bucharest, O=ATM ORG, OU=ATM ROOT CA, CN=x6/emailAddress=x6@pki.com
        Subject Public Key Info:
            Public Key Algorithm: rsaEncryption
                RSA Public-Key: (1024 bit)
                Modulus:
                    00:e0:80:7a:0b:96:3f:fa:e4:07:36:ea:db:2f:81:
                    88:cc:df:f1:18:24:6e:6a:37:ab:48:73:18:bb:c9:
                    c4:69:6f:7c:b9:9e:fd:65:71:da:d3:17:20:85:bd:
                    47:57:ab:7b:4b:ae:9e:43:15:c0:82:04:7d:c5:88:
                    28:2a:78:53:36:c7:c8:75:46:4f:79:d4:29:27:0a:
                    2a:f6:4b:8b:e2:d2:d1:47:4f:2f:7a:28:da:63:aa:
                    44:8d:f4:8a:50:cf:82:a4:5e:f1:55:4d:ac:47:e4:
                    79:b6:d1:73:2c:80:61:95:1d:d1:02:40:11:67:05:
                    4b:d7:8a:38:73:1d:00:57:33
                Exponent: 65537 (0x10001)
        X509v3 extensions:
            X509v3 Basic Constraints: 
                CA:FALSE
            Netscape Comment: 
                OpenSSL Generated Certificate
            X509v3 Authority Key Identifier: 
                keyid:96:45:35:33:89:B7:3E:98:16:65:F3:65:67:E7:66:35:12:39:3F:98

            Authority Information Access: 
                CA Issuers - URI:http://localhost:8080/diverse/rootca/root-ca.crt
                OCSP - URI:http://127.0.0.1:8888

            X509v3 CRL Distribution Points: 

                Full Name:
                  URI:http://localhost:8080/diverse/rootca/crl/crllist_der.crl

            X509v3 Key Usage: 
                Digital Signature, Non Repudiation, Key Encipherment, Data Encipherment, Key Agreement
            X509v3 Extended Key Usage: 
                TLS Web Client Authentication, TLS Web Server Authentication
            X509v3 Subject Key Identifier: 
                0F:C0:CA:D3:DA:F1:13:8D:82:7F:0C:95:28:AD:EC:61:07:10:0F:B5
    Signature Algorithm: sha256WithRSAEncryption
         23:fa:8d:c9:eb:ff:70:36:b2:48:5f:99:56:30:f3:ea:78:84:
         50:ec:5b:3a:ec:79:2d:e8:8e:f1:38:5d:3c:ee:a2:47:61:e2:
         c3:d5:b2:d7:89:38:d1:4c:49:83:be:d7:36:d4:74:92:fe:29:
         22:cb:47:d5:1e:ea:d3:1d:cc:82:77:d3:89:07:d0:2b:66:1a:
         41:70:c2:c8:76:2f:3f:a6:e8:dd:a3:8a:6b:79:27:3c:3e:40:
         1c:5d:c8:37:cb:d1:63:d5:65:b4:a9:4f:5c:de:1e:1a:d5:74:
         a9:96:bc:12:3e:44:8f:e3:88:80:d0:13:cc:c4:28:2b:ce:af:
         a3:6d:39:0a:f1:f2:60:b1:75:23:8b:66:7d:01:9d:57:c7:16:
         ee:7e:c4:e0:92:43:fb:5e:b6:61:21:01:dd:9d:1d:d7:62:7e:
         c9:43:47:8e:55:ca:03:b7:ce:05:cf:13:8c:63:1f:f5:a3:bd:
         76:ac:a4:55:90:2e:71:50:a1:26:68:ce:47:e8:ff:29:d4:e0:
         94:ec:aa:2b:d7:f4:46:8d:15:d9:27:d1:08:6c:2c:91:c1:48:
         f7:f4:d5:ec:d1:ac:2e:38:68:b3:09:54:db:b8:d3:52:83:bd:
         f7:8d:7c:99:f8:8c:d4:02:9a:05:2c:ab:6d:c5:17:24:69:93:
         f6:4c:a9:93
-----BEGIN CERTIFICATE-----
MIIEYTCCA0mgAwIBAgIQAz0BkHKCXuM5e3mBN04WyTANBgkqhkiG9w0BAQsFADCB
gjELMAkGA1UEBhMCUk8xEjAQBgNVBAgMCUJ1Y2hhcmVzdDEQMA4GA1UECgwHQVRN
IE9SRzEUMBIGA1UECwwLQVRNIFJPT1QgQ0ExGDAWBgNVBAMMD0FUTSBDT01NT04g
TkFNRTEdMBsGCSqGSIb3DQEJARYOYXRtX2NhQHBraS5jb20wHhcNMjAwMjA4MjA0
MDQ3WhcNMjEwMjA3MjA0MDQ3WjBxMQswCQYDVQQGEwJSTzESMBAGA1UECAwJQnVj
aGFyZXN0MRAwDgYDVQQKDAdBVE0gT1JHMRQwEgYDVQQLDAtBVE0gUk9PVCBDQTEL
MAkGA1UEAwwCeDYxGTAXBgkqhkiG9w0BCQEWCng2QHBraS5jb20wgZ8wDQYJKoZI
hvcNAQEBBQADgY0AMIGJAoGBAOCAeguWP/rkBzbq2y+BiMzf8Rgkbmo3q0hzGLvJ
xGlvfLme/WVx2tMXIIW9R1ere0uunkMVwIIEfcWIKCp4UzbHyHVGT3nUKScKKvZL
i+LS0UdPL3oo2mOqRI30ilDPgqRe8VVNrEfkebbRcyyAYZUd0QJAEWcFS9eKOHMd
AFczAgMBAAGjggFlMIIBYTAJBgNVHRMEAjAAMCwGCWCGSAGG+EIBDQQfFh1PcGVu
U1NMIEdlbmVyYXRlZCBDZXJ0aWZpY2F0ZTAfBgNVHSMEGDAWgBSWRTUzibc+mBZl
82Vn52Y1Ejk/mDBvBggrBgEFBQcBAQRjMGEwPAYIKwYBBQUHMAKGMGh0dHA6Ly9s
b2NhbGhvc3Q6ODA4MC9kaXZlcnNlL3Jvb3RjYS9yb290LWNhLmNydDAhBggrBgEF
BQcwAYYVaHR0cDovLzEyNy4wLjAuMTo4ODg4MEkGA1UdHwRCMEAwPqA8oDqGOGh0
dHA6Ly9sb2NhbGhvc3Q6ODA4MC9kaXZlcnNlL3Jvb3RjYS9jcmwvY3JsbGlzdF9k
ZXIuY3JsMAsGA1UdDwQEAwID+DAdBgNVHSUEFjAUBggrBgEFBQcDAgYIKwYBBQUH
AwEwHQYDVR0OBBYEFA/AytPa8RONgn8MlSit7GEHEA+1MA0GCSqGSIb3DQEBCwUA
A4IBAQAj+o3J6/9wNrJIX5lWMPPqeIRQ7Fs67Hkt6I7xOF087qJHYeLD1bLXiTjR
TEmDvtc21HSS/ikiy0fVHurTHcyCd9OJB9ArZhpBcMLIdi8/pujdo4preSc8PkAc
Xcg3y9Fj1WW0qU9c3h4a1XSplrwSPkSP44iA0BPMxCgrzq+jbTkK8fJgsXUji2Z9
AZ1XxxbufsTgkkP7XrZhIQHdnR3XYn7JQ0eOVcoDt84FzxOMYx/1o712rKRVkC5x
UKEmaM5H6P8p1OCU7Kor1/RGjRXZJ9EIbCyRwUj39NXs0awuOGizCVTbuNNSg733
jXyZ+IzUApoFLKttxRckaZP2TKmT
-----END CERTIFICATE-----
