Certificate:
    Data:
        Version: 3 (0x2)
        Serial Number:
            03:3d:01:90:72:82:5e:e3:39:7b:79:81:37:4e:16:cc
        Signature Algorithm: sha256WithRSAEncryption
        Issuer: C=RO, ST=Bucharest, O=ATM ORG, OU=ATM ROOT CA, CN=ATM COMMON NAME/emailAddress=atm_ca@pki.com
        Validity
            Not Before: Feb 16 20:39:23 2020 GMT
            Not After : Feb 15 20:39:23 2021 GMT
        Subject: C=RO, ST=Bucharest, O=ATM ORG, OU=ATM ROOT CA, CN=x7/emailAddress=x7@pki.com
        Subject Public Key Info:
            Public Key Algorithm: rsaEncryption
                RSA Public-Key: (1024 bit)
                Modulus:
                    00:db:bf:4c:47:68:b7:43:01:d2:a1:45:2b:09:da:
                    67:d6:5f:60:9e:e6:70:7b:9e:5b:de:8e:4e:d3:60:
                    68:ae:e2:74:9a:4e:8c:61:62:44:58:b3:31:4e:ae:
                    b3:a0:8d:05:f7:12:f4:27:50:9c:32:d4:05:6c:f1:
                    90:7f:b9:d7:58:10:c3:5d:ee:e0:d7:84:bb:f5:6d:
                    5e:8b:72:10:30:f8:13:4e:a9:00:5d:6d:24:33:5f:
                    77:3f:2a:9b:ac:cf:0a:e7:2e:a6:8f:45:58:d7:c6:
                    18:ca:3d:10:93:c6:37:30:5e:77:c1:0b:53:6b:d6:
                    d1:99:7b:aa:e9:d1:89:26:ed
                Exponent: 65537 (0x10001)
        X509v3 extensions:
            X509v3 Basic Constraints: 
                CA:FALSE
            Netscape Comment: 
                OpenSSL Generated Certificate
            X509v3 Authority Key Identifier: 
                keyid:96:45:35:33:89:B7:3E:98:16:65:F3:65:67:E7:66:35:12:39:3F:98

            Authority Information Access: 
                CA Issuers - URI:http://localhost:8080/diverse/rootca/root-ca.crt
                OCSP - URI:http://127.0.0.1:8888

            X509v3 CRL Distribution Points: 

                Full Name:
                  URI:http://localhost:8080/diverse/rootca/crl/crllist_der.crl

            X509v3 Key Usage: 
                Digital Signature, Non Repudiation, Key Encipherment, Data Encipherment, Key Agreement
            X509v3 Extended Key Usage: 
                TLS Web Client Authentication, TLS Web Server Authentication
            X509v3 Subject Key Identifier: 
                A4:1A:55:1A:12:C8:0A:77:F2:D6:F4:49:FC:24:CD:FE:F8:FC:7A:91
    Signature Algorithm: sha256WithRSAEncryption
         96:1c:f6:43:88:d1:ed:0d:9c:34:dd:05:c9:a7:8f:28:4d:0c:
         67:ff:98:4d:e7:75:8c:e2:7b:89:60:68:74:89:a0:59:77:7e:
         99:14:d5:58:70:62:3e:13:26:28:af:f3:ff:64:0d:e0:4d:23:
         9c:77:c4:fc:a8:66:42:2c:3d:1b:3a:51:2b:6d:7e:44:e4:42:
         7d:e2:b2:8c:5f:6f:44:8c:73:67:c0:aa:7b:57:a5:a0:c6:bb:
         ec:16:d8:38:08:46:a9:11:ba:01:ee:19:eb:ab:76:01:90:ec:
         45:23:7a:96:81:f9:76:77:92:57:f0:16:aa:94:07:2e:68:2d:
         0d:56:f9:ad:dd:bd:f2:ec:d8:94:06:48:05:6e:2a:56:9d:ff:
         f8:99:7c:21:e3:ee:02:7c:50:b7:03:ab:ac:c1:d0:27:f8:dd:
         55:30:60:c1:a5:af:13:cf:e2:c9:d9:c5:68:d0:03:43:f2:f3:
         ce:71:b0:2c:d3:4a:43:0e:a7:b4:eb:af:0d:0a:7e:bf:6f:e4:
         2e:46:49:ce:7a:38:8e:88:a5:c8:1e:52:bf:ba:2a:e2:37:21:
         09:53:28:c8:dc:db:e1:7f:ac:25:bc:a1:33:da:28:12:e4:62:
         51:12:9b:59:f5:fd:72:41:d7:6d:19:2b:55:f5:e3:2b:2f:5c:
         86:97:eb:90
-----BEGIN CERTIFICATE-----
MIIEYTCCA0mgAwIBAgIQAz0BkHKCXuM5e3mBN04WzDANBgkqhkiG9w0BAQsFADCB
gjELMAkGA1UEBhMCUk8xEjAQBgNVBAgMCUJ1Y2hhcmVzdDEQMA4GA1UECgwHQVRN
IE9SRzEUMBIGA1UECwwLQVRNIFJPT1QgQ0ExGDAWBgNVBAMMD0FUTSBDT01NT04g
TkFNRTEdMBsGCSqGSIb3DQEJARYOYXRtX2NhQHBraS5jb20wHhcNMjAwMjE2MjAz
OTIzWhcNMjEwMjE1MjAzOTIzWjBxMQswCQYDVQQGEwJSTzESMBAGA1UECAwJQnVj
aGFyZXN0MRAwDgYDVQQKDAdBVE0gT1JHMRQwEgYDVQQLDAtBVE0gUk9PVCBDQTEL
MAkGA1UEAwwCeDcxGTAXBgkqhkiG9w0BCQEWCng3QHBraS5jb20wgZ8wDQYJKoZI
hvcNAQEBBQADgY0AMIGJAoGBANu/TEdot0MB0qFFKwnaZ9ZfYJ7mcHueW96OTtNg
aK7idJpOjGFiRFizMU6us6CNBfcS9CdQnDLUBWzxkH+511gQw13u4NeEu/VtXoty
EDD4E06pAF1tJDNfdz8qm6zPCucupo9FWNfGGMo9EJPGNzBed8ELU2vW0Zl7qunR
iSbtAgMBAAGjggFlMIIBYTAJBgNVHRMEAjAAMCwGCWCGSAGG+EIBDQQfFh1PcGVu
U1NMIEdlbmVyYXRlZCBDZXJ0aWZpY2F0ZTAfBgNVHSMEGDAWgBSWRTUzibc+mBZl
82Vn52Y1Ejk/mDBvBggrBgEFBQcBAQRjMGEwPAYIKwYBBQUHMAKGMGh0dHA6Ly9s
b2NhbGhvc3Q6ODA4MC9kaXZlcnNlL3Jvb3RjYS9yb290LWNhLmNydDAhBggrBgEF
BQcwAYYVaHR0cDovLzEyNy4wLjAuMTo4ODg4MEkGA1UdHwRCMEAwPqA8oDqGOGh0
dHA6Ly9sb2NhbGhvc3Q6ODA4MC9kaXZlcnNlL3Jvb3RjYS9jcmwvY3JsbGlzdF9k
ZXIuY3JsMAsGA1UdDwQEAwID+DAdBgNVHSUEFjAUBggrBgEFBQcDAgYIKwYBBQUH
AwEwHQYDVR0OBBYEFKQaVRoSyAp38tb0Sfwkzf74/HqRMA0GCSqGSIb3DQEBCwUA
A4IBAQCWHPZDiNHtDZw03QXJp48oTQxn/5hN53WM4nuJYGh0iaBZd36ZFNVYcGI+
EyYor/P/ZA3gTSOcd8T8qGZCLD0bOlErbX5E5EJ94rKMX29EjHNnwKp7V6Wgxrvs
Ftg4CEapEboB7hnrq3YBkOxFI3qWgfl2d5JX8BaqlAcuaC0NVvmt3b3y7NiUBkgF
bipWnf/4mXwh4+4CfFC3A6uswdAn+N1VMGDBpa8Tz+LJ2cVo0AND8vPOcbAs00pD
Dqe0668NCn6/b+QuRknOejiOiKXIHlK/uiriNyEJUyjI3Nvhf6wlvKEz2igS5GJR
EptZ9f1yQddtGStV9eMrL1yGl+uQ
-----END CERTIFICATE-----
