Certificate:
    Data:
        Version: 3 (0x2)
        Serial Number:
            03:3d:01:90:72:82:5e:e3:39:7b:79:81:37:4e:16:d1
        Signature Algorithm: sha256WithRSAEncryption
        Issuer: C=RO, ST=Bucharest, O=ATM ORG, OU=ATM ROOT CA, CN=ATM COMMON NAME/emailAddress=atm_ca@pki.com
        Validity
            Not Before: Feb 16 22:13:57 2020 GMT
            Not After : Feb 15 22:13:57 2021 GMT
        Subject: C=RO, ST=Bucharest, O=ATM ORG, CN=x8
        Subject Public Key Info:
            Public Key Algorithm: rsaEncryption
                RSA Public-Key: (2048 bit)
                Modulus:
                    00:d7:6c:29:c4:3f:c0:e8:6e:9c:f2:44:91:42:4b:
                    bd:bc:3d:81:a3:96:6e:52:ab:c3:15:14:25:b3:a4:
                    2a:90:ae:e2:32:22:87:68:d2:b8:95:2b:8c:10:5c:
                    09:96:5f:ee:d9:32:d0:c8:00:af:6b:96:e5:b9:97:
                    bf:54:77:96:ac:55:9d:37:d9:8a:3f:98:55:b7:aa:
                    63:11:6b:6d:95:0f:6d:b1:86:28:99:35:d7:0f:95:
                    dc:47:eb:19:1d:80:89:1a:a9:96:6b:af:39:a5:46:
                    b6:8d:8e:f6:a0:80:57:4c:1a:29:8f:db:b5:f3:04:
                    6d:52:35:93:8d:1c:b0:00:d9:f8:5f:52:37:39:63:
                    2c:1a:3a:98:00:dd:78:36:8b:65:ad:11:6a:d4:bd:
                    44:22:d2:aa:4f:3c:ef:7d:64:31:70:db:56:59:1f:
                    14:26:90:31:23:de:2c:c4:8e:d8:00:4c:cb:6d:00:
                    ce:08:72:33:d1:8d:35:93:e8:9e:0c:40:70:2d:e6:
                    d5:72:b7:b1:70:96:c6:57:8c:01:fd:0c:aa:34:4c:
                    6d:d1:c7:9f:31:33:ca:ab:6b:69:00:2b:82:82:f9:
                    5d:dc:27:49:a9:48:4e:0b:c5:dc:ec:d6:4b:36:a2:
                    25:1b:1e:7f:19:fc:6f:3a:49:a1:d9:2f:25:32:01:
                    40:af
                Exponent: 65537 (0x10001)
        X509v3 extensions:
            X509v3 Basic Constraints: 
                CA:FALSE
            Netscape Comment: 
                OpenSSL Generated Certificate
            X509v3 Authority Key Identifier: 
                keyid:96:45:35:33:89:B7:3E:98:16:65:F3:65:67:E7:66:35:12:39:3F:98

            Authority Information Access: 
                CA Issuers - URI:http://localhost:8080/diverse/rootca/root-ca.crt
                OCSP - URI:http://127.0.0.1:8888

            X509v3 CRL Distribution Points: 

                Full Name:
                  URI:http://localhost:8080/diverse/rootca/crl/crllist_der.crl

            X509v3 Key Usage: 
                Digital Signature, Non Repudiation, Key Encipherment
            X509v3 Extended Key Usage: 
                TLS Web Client Authentication, TLS Web Server Authentication
            X509v3 Subject Key Identifier: 
                3F:39:19:BD:99:22:5E:D8:3B:FB:6B:EC:01:77:A7:5E:46:2C:31:AC
    Signature Algorithm: sha256WithRSAEncryption
         ae:94:24:51:3f:e2:4f:15:d2:bb:f2:c4:dd:33:3a:72:8b:a9:
         32:2a:fe:6d:90:4a:a5:96:f7:e4:c2:81:a0:be:09:51:4f:97:
         a9:a4:05:10:70:e0:62:d9:a9:7c:9a:9c:0e:5d:4c:a3:54:b8:
         e1:b4:bb:72:f3:e3:21:f4:78:d1:6f:84:63:b2:a9:a1:72:15:
         5c:a8:76:01:93:a5:5c:46:52:e3:3e:d3:b5:25:14:98:0d:51:
         bd:ec:5d:82:04:e4:f7:e1:0f:9f:4a:30:4d:03:fa:cb:48:1d:
         e6:90:e1:ca:b9:ab:42:c4:b2:68:28:de:68:03:01:e6:18:b5:
         d5:67:9f:7d:c6:22:4f:26:d2:ab:13:55:d8:50:5b:b4:d3:a6:
         ed:2b:32:47:75:23:ea:7a:69:40:ec:7f:d0:f0:d9:7b:62:ec:
         dc:89:1e:8b:d4:70:14:c1:06:cf:54:1f:35:41:ec:8f:59:64:
         5e:8b:6f:d7:6f:c7:45:43:a3:9e:b3:2d:04:5a:45:7e:2d:10:
         f9:ea:42:61:32:69:55:37:94:24:fa:3b:1c:39:32:27:57:2c:
         2f:e1:68:ac:63:87:9c:fd:38:e5:8b:c5:5c:9d:18:b3:df:49:
         95:68:33:7e:c2:6a:0e:84:e2:87:6a:ed:ed:fe:e8:b5:66:03:
         dc:b5:30:83
-----BEGIN CERTIFICATE-----
MIIEtDCCA5ygAwIBAgIQAz0BkHKCXuM5e3mBN04W0TANBgkqhkiG9w0BAQsFADCB
gjELMAkGA1UEBhMCUk8xEjAQBgNVBAgMCUJ1Y2hhcmVzdDEQMA4GA1UECgwHQVRN
IE9SRzEUMBIGA1UECwwLQVRNIFJPT1QgQ0ExGDAWBgNVBAMMD0FUTSBDT01NT04g
TkFNRTEdMBsGCSqGSIb3DQEJARYOYXRtX2NhQHBraS5jb20wHhcNMjAwMjE2MjIx
MzU3WhcNMjEwMjE1MjIxMzU3WjBAMQswCQYDVQQGEwJSTzESMBAGA1UECAwJQnVj
aGFyZXN0MRAwDgYDVQQKDAdBVE0gT1JHMQswCQYDVQQDDAJ4ODCCASIwDQYJKoZI
hvcNAQEBBQADggEPADCCAQoCggEBANdsKcQ/wOhunPJEkUJLvbw9gaOWblKrwxUU
JbOkKpCu4jIih2jSuJUrjBBcCZZf7tky0MgAr2uW5bmXv1R3lqxVnTfZij+YVbeq
YxFrbZUPbbGGKJk11w+V3EfrGR2AiRqplmuvOaVGto2O9qCAV0waKY/btfMEbVI1
k40csADZ+F9SNzljLBo6mADdeDaLZa0RatS9RCLSqk88731kMXDbVlkfFCaQMSPe
LMSO2ABMy20AzghyM9GNNZPongxAcC3m1XK3sXCWxleMAf0MqjRMbdHHnzEzyqtr
aQArgoL5XdwnSalITgvF3OzWSzaiJRsefxn8bzpJodkvJTIBQK8CAwEAAaOCAWUw
ggFhMAkGA1UdEwQCMAAwLAYJYIZIAYb4QgENBB8WHU9wZW5TU0wgR2VuZXJhdGVk
IENlcnRpZmljYXRlMB8GA1UdIwQYMBaAFJZFNTOJtz6YFmXzZWfnZjUSOT+YMG8G
CCsGAQUFBwEBBGMwYTA8BggrBgEFBQcwAoYwaHR0cDovL2xvY2FsaG9zdDo4MDgw
L2RpdmVyc2Uvcm9vdGNhL3Jvb3QtY2EuY3J0MCEGCCsGAQUFBzABhhVodHRwOi8v
MTI3LjAuMC4xOjg4ODgwSQYDVR0fBEIwQDA+oDygOoY4aHR0cDovL2xvY2FsaG9z
dDo4MDgwL2RpdmVyc2Uvcm9vdGNhL2NybC9jcmxsaXN0X2Rlci5jcmwwCwYDVR0P
BAQDAgXgMB0GA1UdJQQWMBQGCCsGAQUFBwMCBggrBgEFBQcDATAdBgNVHQ4EFgQU
PzkZvZkiXtg7+2vsAXenXkYsMawwDQYJKoZIhvcNAQELBQADggEBAK6UJFE/4k8V
0rvyxN0zOnKLqTIq/m2QSqWW9+TCgaC+CVFPl6mkBRBw4GLZqXyanA5dTKNUuOG0
u3Lz4yH0eNFvhGOyqaFyFVyodgGTpVxGUuM+07UlFJgNUb3sXYIE5PfhD59KME0D
+stIHeaQ4cq5q0LEsmgo3mgDAeYYtdVnn33GIk8m0qsTVdhQW7TTpu0rMkd1I+p6
aUDsf9Dw2Xti7NyJHovUcBTBBs9UHzVB7I9ZZF6Lb9dvx0VDo56zLQRaRX4tEPnq
QmEyaVU3lCT6Oxw5MidXLC/haKxjh5z9OOWLxVydGLPfSZVoM37Cag6E4odq7e3+
6LVmA9y1MIM=
-----END CERTIFICATE-----
